H	DW Extract Job Number(work on this)	2021-01-23 03:40:50	data/20210123/mai60_z800_20210123_034050_b
z00_doc_number	z00_marc_rec_field_cd	UNUSED	z00_marc_rec_field_txt
000134985 OWN   L $$aBCHOL
000134985 FMT   L HO
000134985 LDR   L 00000ny^^^22000003n^4500
000134985 CAT   L $$aCONV$$b20$$c20021125$$lMAI60$$h1350
000134985 CAT   L $$aZ6BCLAW$$b20$$c20030109$$lMAI60$$h1539
000134985 CAT   L $$aZ4BBCMER$$b20$$c20040108$$lMAI60$$h1922
000134985 CAT   L $$aZ4BBCMER$$b20$$c20040108$$lMAI60$$h1922
000134985 CAT   L $$aZ5ABCLAW$$b20$$c20050422$$lMAI60$$h1332
000134985 CAT   L $$aZ5ABCLAW$$b20$$c20050422$$lMAI60$$h1332
000134985 CAT   L $$aZ6BCJET$$b20$$c20060104$$lMAI60$$h1626
000134985 CAT   L $$aZ5ABCLAW$$b20$$c20070125$$lMAI60$$h0914
000134985 CAT   L $$aZ5ABCLAW$$b20$$c20070125$$lMAI60$$h0914
000134985 CAT   L $$aZ4BBCMER$$b20$$c20080129$$lMAI60$$h1813
000134985 CAT   L $$aZ4BBCMER$$b20$$c20090223$$lMAI60$$h1656
000134985 CAT   L $$aZ4BBCMER$$b20$$c20100203$$lMAI60$$h1727
000134985 CAT   L $$aZ4BBCMER$$b20$$c20100203$$lMAI60$$h1727
000134985 CAT   L $$aZ4BBCMER$$b20$$c20100203$$lMAI60$$h1729
000134985 CAT   L $$aZ4BBCMER$$b20$$c20100203$$lMAI60$$h1730
000134985 CAT   L $$aZ4BBCMER$$b20$$c20110131$$lMAI60$$h1933
000134985 CAT   L $$aZ5ABCLAW$$b20$$c20110615$$lMAI60$$h1330
000134985 CAT   L $$aZ4BBCMER$$b20$$c20120209$$lMAI60$$h1437
000134985 CAT   L $$aZ5ABCLAW$$b20$$c20130205$$lMAI60$$h1100
000134985 CAT   L $$aZ5ABCLAW$$b20$$c20140227$$lMAI60$$h1324
000134985 CAT   L $$aZ5ABCLAW$$b20$$c20150220$$lMAI60$$h1424
000134985 CAT   L $$aZ5ABCLAW$$b20$$c20151203$$lMAI60$$h1123
000134985 CAT   L $$aD5BCBEH$$b20$$c20161115$$lMAI60$$h0912
000134985 CAT   L $$aZ5ABCLAW$$b20$$c20170124$$lMAI60$$h1537
000134985 CAT   L $$aZ5ABCLAW$$b20$$c20180124$$lMAI60$$h1310
000134985 CAT   L $$aZ5ABCLAW$$b20$$c20181219$$lMAI60$$h1327
000134985 CAT   L $$aZ4ABCEB$$b20$$c20191003$$lMAI60$$h1459
000134985 CAT   L $$aZ4ABCEB$$b20$$c20200106$$lMAI60$$h1616
000134985 CAT   L $$aZ5ABCLAW$$b20$$c20210122$$lMAI60$$h1201
000134985 003   L MdU-BC
000134985 004   L $$aBC0000986752
000134985 004   L $$aBC0000986752.01000
000134985 005   L 20021005
000134985 007   L ta
000134985 008   L ||||||4p^^^^8^^^1001uufre0021005
000134985 022   L $$a0047-4800
000134985 LKR   L $$aHOL$$lMAI01$$b000351700
000134985 852 0 L $$bBC-BC$$cSSTCK
000134985 853   L $$899$$ano.$$u4$$vr$$i(year)$$j(month)$$wq
000134985 853X  L $$899$$901000$$a205$$i2022$$j03$$320220301
000134985 86631 L $$ano.181(2016:mars)-$$xHoldings updated 11/15/2016 BEH; JSTOR update 10/3/19 EB
000155763 OWN   L $$aBCHOL
000155763 FMT   L HO
000155763 LDR   L 00000ny^^^22000003n^4500
000155763 CAT   L $$aCONV$$b20$$c20021125$$lMAI60$$h1351
000155763 CAT   L $$aZ4BBCMER$$b20$$c20040713$$lMAI60$$h1433
000155763 CAT   L $$aZ4BBCMER$$b20$$c20040713$$lMAI60$$h1433
000155763 CAT   L $$aZ4BBCMER$$b20$$c20040713$$lMAI60$$h1433
000155763 CAT   L $$aZ4BBCMER$$b20$$c20041201$$lMAI60$$h1745
000155763 CAT   L $$aZ5ABCLAW$$b20$$c20041207$$lMAI60$$h1420
000155763 CAT   L $$aZ5ABCLAW$$b20$$c20041207$$lMAI60$$h1421
000155763 CAT   L $$aZ5ABCLAW$$b20$$c20041207$$lMAI60$$h1432
000155763 CAT   L $$aZ5ABCLAW$$b20$$c20041207$$lMAI60$$h1433
000155763 CAT   L $$aZ5ABCLAW$$b20$$c20041209$$lMAI60$$h1228
000155763 CAT   L $$aZ5ABCLAW$$b20$$c20050727$$lMAI60$$h2003
000155763 CAT   L $$aZ5ABCLAW$$b20$$c20050727$$lMAI60$$h2003
000155763 CAT   L $$aZ5ABCLAW$$b20$$c20060601$$lMAI60$$h1643
000155763 CAT   L $$aZ5ABCLAW$$b20$$c20060601$$lMAI60$$h1643
000155763 CAT   L $$aZ5ABCLAW$$b20$$c20070802$$lMAI60$$h1134
000155763 CAT   L $$aZ5ABCLAW$$b20$$c20070802$$lMAI60$$h1134
000155763 CAT   L $$aZ5ABCLAW$$b20$$c20110114$$lMAI60$$h1220
000155763 CAT   L $$aZ5ABCLAW$$b20$$c20111020$$lMAI60$$h1029
000155763 CAT   L $$aZ5ABCLAW$$b20$$c20170221$$lMAI60$$h1920
000155763 CAT   L $$aZ5ABCLAW$$b20$$c20170221$$lMAI60$$h1922
000155763 CAT   L $$aZ5ABCLAW$$b20$$c20170221$$lMAI60$$h1922
000155763 CAT   L $$aZ5ABCLAW$$b20$$c20170221$$lMAI60$$h1922
000155763 CAT   L $$aZ5ABCLAW$$b20$$c20171116$$lMAI60$$h1427
000155763 CAT   L $$aZ5ABCLAW$$b20$$c20181211$$lMAI60$$h1716
000155763 CAT   L $$aZ5ABCLAW$$b20$$c20191204$$lMAI60$$h1052
000155763 CAT   L $$aZ4ABCEB$$b20$$c20201110$$lMAI60$$h1105
000155763 CAT   L $$aZ5ABCLAW$$b20$$c20210122$$lMAI60$$h1245
000155763 CAT   L $$aZ5ABCLAW$$b20$$c20210122$$lMAI60$$h1248
000155763 CAT   L $$aZ5ABCLAW$$b20$$c20210122$$lMAI60$$h1248
000155763 003   L MdU-BC
000155763 004   L $$aBC0001332293
000155763 004   L $$aBC0001332293.01000
000155763 005   L 20021109
000155763 007   L ta
000155763 008   L ||||||4p^^^^8^^^1001uueng0021109
000155763 022   L $$a0033-5894
000155763 LKR   L $$aHOL$$lMAI01$$b000429311
000155763 852 0 L $$bBC-BC$$cSSTCK
000155763 853   L $$899$$av.$$u6$$vr$$i(year)$$j(month)$$wb
000155763 853X  L $$899$$901000$$a105$$i2022$$j01$$320220101
000155763 86631 L $$av.7:no.1(1977:Jan.)-v.29:no.2(1988:Mar.),v.30:no.1(1988:July)-v.41:no.2(1994:Mar.),v.42:no.1(1994:July)-v.57:no.2(2002:Mar.),v.61:no.1(2004:Jan.)-v.67:no.1(2007:Jan.),v.87:no.1(2017:Jan.)-$$xHoldings updated 1/14/11 LW
000163394 OWN   L $$aBCHOL
000163394 FMT   L HO
000163394 LDR   L 00000ny^^^22000003n^4500
000163394 CAT   L $$aCONV$$b20$$c20021125$$lMAI60$$h1352
000163394 CAT   L $$aZ4BBCMER$$b20$$c20040223$$lMAI60$$h1828
000163394 CAT   L $$aZ4BBCMER$$b20$$c20040223$$lMAI60$$h1828
000163394 CAT   L $$aZ4BBCMER$$b20$$c20040223$$lMAI60$$h1828
000163394 CAT   L $$aZ6BCJET$$b20$$c20041129$$lMAI60$$h1232
000163394 CAT   L $$aZ6BCJET$$b20$$c20041129$$lMAI60$$h1233
000163394 CAT   L $$aZ6BCJET$$b20$$c20041129$$lMAI60$$h1233
000163394 CAT   L $$aZ6BCJET$$b20$$c20041129$$lMAI60$$h1234
000163394 CAT   L $$aZ6BCJET$$b20$$c20041129$$lMAI60$$h1234
000163394 CAT   L $$aZ5ABCLAW$$b20$$c20050603$$lMAI60$$h1548
000163394 CAT   L $$aZ5ABCLAW$$b20$$c20050603$$lMAI60$$h1549
000163394 CAT   L $$aZ5ABCLAW$$b20$$c20051110$$lMAI60$$h0927
000163394 CAT   L $$aZ5ABCLAW$$b20$$c20051110$$lMAI60$$h0927
000163394 CAT   L $$aZ5ABCLAW$$b20$$c20061206$$lMAI60$$h1605
000163394 CAT   L $$aZ5ABCLAW$$b20$$c20061206$$lMAI60$$h1605
000163394 CAT   L $$aZ4BBCMER$$b20$$c20080220$$lMAI60$$h1726
000163394 CAT   L $$aZ4BBCMER$$b20$$c20080527$$lMAI60$$h1211
000163394 CAT   L $$aZ4BBCMER$$b20$$c20091118$$lMAI60$$h1936
000163394 CAT   L $$aZ4BBCMER$$b20$$c20101115$$lMAI60$$h2042
000163394 CAT   L $$aD4BCLAW$$b20$$c20110308$$lMAI60$$h1615
000163394 CAT   L $$aZ4BBCMER$$b20$$c20111220$$lMAI60$$h1420
000163394 CAT   L $$aZ4BBCMER$$b20$$c20111220$$lMAI60$$h1421
000163394 CAT   L $$aZ5ABCLAW$$b20$$c20130228$$lMAI60$$h1724
000163394 CAT   L $$aZ5ABCLD$$b20$$c20131125$$lMAI60$$h1724
000163394 CAT   L $$aZ5ABCLAW$$b20$$c20141216$$lMAI60$$h1049
000163394 CAT   L $$aZ5ABCLAW$$b20$$c20160120$$lMAI60$$h1146
000163394 CAT   L $$aZ5ABCLAW$$b20$$c20161129$$lMAI60$$h1623
000163394 CAT   L $$aZ5ABCLAW$$b20$$c20170303$$lMAI60$$h1037
000163394 CAT   L $$aZ5ABCLAW$$b20$$c20180228$$lMAI60$$h1333
000163394 CAT   L $$aZ5ABCLAW$$b20$$c20181205$$lMAI60$$h1607
000163394 CAT   L $$aZ4ABCEB$$b20$$c20200102$$lMAI60$$h1519
000163394 CAT   L $$aZ5ABCLAW$$b20$$c20210122$$lMAI60$$h1058
000163394 003   L MdU-BC
000163394 004   L $$aBC0001481673
000163394 004   L $$aBC0001481673.01000
000163394 005   L 20020402
000163394 007   L ta
000163394 008   L ||||||4p^^^^8^^^1001uueng0020402
000163394 022   L $$a0003-6420
000163394 LKR   L $$aHOL$$lMAI01$$b000461481
000163394 852 0 L $$bBC-BC$$cSPBAF
000163394 853   L $$899$$ano.$$u4$$vr$$i(year)$$j(season)$$wq
000163394 853X  L $$899$$901000$$a246$$i2022$$j21$$320220301
000163394 86631 L $$av.1(1952)-$$xDO NOT STAMP OR STRIP THIS TITLE. SEND TO SPECIAL COLL
000168326 OWN   L $$aBCHOL
000168326 FMT   L HO
000168326 LDR   L 00000nx^^^22000003n^4500
000168326 CAT   L $$aCONV$$b20$$c20021125$$lMAI60$$h1352
000168326 CAT   L $$aZ5ABCLAW$$b20$$c20040108$$lMAI60$$h1004
000168326 CAT   L $$aZ5ABCLAW$$b20$$c20040108$$lMAI60$$h1004
000168326 CAT   L $$aZ5ABCLAW$$b20$$c20040108$$lMAI60$$h1005
000168326 CAT   L $$aZ5ABCLAW$$b20$$c20040108$$lMAI60$$h1006
000168326 CAT   L $$aZ5ABCLAW$$b20$$c20040616$$lMAI60$$h1431
000168326 CAT   L $$aZ4BBCMER$$b20$$c20041103$$lMAI60$$h1535
000168326 CAT   L $$aZ5ABCLAW$$b20$$c20060208$$lMAI60$$h1144
000168326 CAT   L $$aZ5ABCLAW$$b20$$c20060208$$lMAI60$$h1144
000168326 CAT   L $$aZ5ABCLAW$$b20$$c20060516$$lMAI60$$h1713
000168326 CAT   L $$aZ5ABCLAW$$b20$$c20060516$$lMAI60$$h1713
000168326 CAT   L $$aZ4BBCMER$$b20$$c20071204$$lMAI60$$h1626
000168326 CAT   L $$aZ5ABCLAW$$b20$$c20080701$$lMAI60$$h1150
000168326 CAT   L $$aZ4BBCMER$$b20$$c20081103$$lMAI60$$h1946
000168326 CAT   L $$aZ4BBCMER$$b20$$c20100202$$lMAI60$$h1954
000168326 CAT   L $$aZ4BBCMER$$b20$$c20100202$$lMAI60$$h1955
000168326 CAT   L $$aZ4BBCMER$$b20$$c20100427$$lMAI60$$h1750
000168326 CAT   L $$aZ4BBCMER$$b20$$c20100427$$lMAI60$$h1751
000168326 CAT   L $$aD4BCLAW$$b20$$c20100721$$lMAI60$$h1509
000168326 CAT   L $$aD4BCLAW$$b20$$c20100721$$lMAI60$$h1509
000168326 CAT   L $$aZ4BBCMER$$b20$$c20101109$$lMAI60$$h1916
000168326 CAT   L $$aZ5ABCLAW$$b20$$c20110504$$lMAI60$$h1400
000168326 CAT   L $$aZ5ABCLAW$$b20$$c20110504$$lMAI60$$h1409
000168326 CAT   L $$aZ4BBCMER$$b20$$c20120105$$lMAI60$$h1742
000168326 CAT   L $$aZ4BBCLD$$b20$$c20130108$$lMAI60$$h1346
000168326 CAT   L $$aZ5ABCLD$$b20$$c20131202$$lMAI60$$h1755
000168326 CAT   L $$aZ5ABCLAW$$b20$$c20140715$$lMAI60$$h1834
000168326 CAT   L $$aZ5ABCLAW$$b20$$c20141201$$lMAI60$$h1438
000168326 CAT   L $$aZ5ABCLD$$b20$$c20151201$$lMAI60$$h1540
000168326 CAT   L $$aZ5ABCLAW$$b20$$c20161129$$lMAI60$$h1628
000168326 CAT   L $$aZ5ABCLAW$$b20$$c20171206$$lMAI60$$h1259
000168326 CAT   L $$aZ5ABCLAW$$b20$$c20181219$$lMAI60$$h1234
000168326 CAT   L $$aZ5ABCLAW$$b20$$c20191210$$lMAI60$$h1624
000168326 CAT   L $$aZ5ABCLAW$$b20$$c20210122$$lMAI60$$h1126
000168326 003   L MdU-BC
000168326 004   L $$aBC0001565627
000168326 004   L $$aBC0001565627.01000
000168326 005   L 20021016
000168326 007   L ta
000168326 008   L ||||||4p^^^^8^^^1001uueng0021016
000168326 022   L $$a0011-3530
000168326 LKR   L $$aHOL$$lMAI01$$b000478748
000168326 852 0 L $$bBC-BC$$cSSTCK
000168326 853   L $$899$$av.$$bno.$$u9$$vc$$i(year)$$j(month)$$wm$$yom06,07,08
000168326 853X  L $$899$$901000$$a121$$b831$$i2022$$j01$$320220101
000168326 86631 L $$av.34-35:no.197-206,208(1958:Jan.-Sept.,Dec.),v.36(1959)-v.46(1964),v.48(1965)-v.52(1967),v.53:no.312-316(1967:Aug.-Dec.),v.54(1968)-v.58(1970),v.59:no.347,349-350,352(1970:July,Sept.-Oct.,Dec.),v.60:no.354-357(1971:Feb.-May),v.61(1971)-v.62(1972),v.63:no.371,374-376(1972:July,Oct.-Dec.),v.64(1973)-v.74(1978),v.75:no.439-440,442(1978:Sept.-Oct.,Dec.),v.76:no.443-446(1979:Jan.-Apr.),v.77:no.448(1979:July/Aug.),v.82(1983),v.83:no.491,493-494(1984:Mar.,May-Sept.),v.84(1985)-v.91(1992),v.92:no.570-575,578(1993:Jan.-Sept.,Dec.),v.93:no.579-580,582-584,587(1994:Jan.-Feb.,Apr.-Sept.,Dec.),v.94(1995)-v.97(1998),v.98:no.624-626,628-632(1999:Jan.-Mar.,May-Dec.),v.99(2000)-v.106(2007),v.107:no.705,707-713(2008:Jan.,Mar.-Dec.),v.108:no.714-717,719-722(2009:Jan.-Apr.,Sept.-Dec.),v.109(2010)-$$xHoldings updated 7/15/14 LW
000168422 OWN   L $$aBCHOL
000168422 FMT   L HO
000168422 LDR   L 00000nx^^^22000003n^4500
000168422 CAT   L $$aCONV$$b20$$c20021125$$lMAI60$$h1352
000168422 CAT   L $$aZ5ABCJET$$b20$$c20031120$$lMAI60$$h1454
000168422 CAT   L $$aZ5ABCJET$$b20$$c20031120$$lMAI60$$h1457
000168422 CAT   L $$aZ5ABCLAW$$b20$$c20040708$$lMAI60$$h1728
000168422 CAT   L $$aZ5ABCLAW$$b20$$c20040708$$lMAI60$$h1729
000168422 CAT   L $$aZ4BBCMER$$b20$$c20041110$$lMAI60$$h1333
000168422 CAT   L $$aZ5ABCLAW$$b20$$c20060120$$lMAI60$$h1327
000168422 CAT   L $$aZ5ABCLAW$$b20$$c20060120$$lMAI60$$h1327
000168422 CAT   L $$aZ5ABCLAW$$b20$$c20060601$$lMAI60$$h1052
000168422 CAT   L $$aZ5ABCLAW$$b20$$c20060601$$lMAI60$$h1052
000168422 CAT   L $$aZ4BBCMER$$b20$$c20080115$$lMAI60$$h1915
000168422 CAT   L $$aZ4BBCMER$$b20$$c20080212$$lMAI60$$h1132
000168422 CAT   L $$aZ4BBCMER$$b20$$c20080212$$lMAI60$$h1133
000168422 CAT   L $$aZ4BBCMER$$b20$$c20080317$$lMAI60$$h1517
000168422 CAT   L $$aZ4BBCMER$$b20$$c20080605$$lMAI60$$h1420
000168422 CAT   L $$aZ4BBCMER$$b20$$c20080605$$lMAI60$$h1420
000168422 CAT   L $$aZ5ABCLAW$$b20$$c20090310$$lMAI60$$h1349
000168422 CAT   L $$aZ5ABCLAW$$b20$$c20090310$$lMAI60$$h1350
000168422 CAT   L $$aZ4BBCMER$$b20$$c20091207$$lMAI60$$h2003
000168422 CAT   L $$aZ4BBCMER$$b20$$c20100125$$lMAI60$$h1828
000168422 CAT   L $$aD4BCLAW$$b20$$c20100302$$lMAI60$$h1007
000168422 CAT   L $$aZ4BBCMER$$b20$$c20100304$$lMAI60$$h1528
000168422 CAT   L $$aZ4BBCMER$$b20$$c20100325$$lMAI60$$h1619
000168422 CAT   L $$aZ4BBCMER$$b20$$c20100325$$lMAI60$$h1621
000168422 CAT   L $$aZ4BBCMER$$b20$$c20100325$$lMAI60$$h1623
000168422 CAT   L $$aZ4BBCMER$$b20$$c20100325$$lMAI60$$h1623
000168422 CAT   L $$aZ4BBCMER$$b20$$c20100325$$lMAI60$$h1624
000168422 CAT   L $$aZ4BBCMER$$b20$$c20101129$$lMAI60$$h1556
000168422 CAT   L $$aZ4BBCMER$$b20$$c20101129$$lMAI60$$h1557
000168422 CAT   L $$aZ4BBCMER$$b20$$c20111206$$lMAI60$$h1444
000168422 CAT   L $$aZ4BBCMER$$b20$$c20111206$$lMAI60$$h1445
000168422 CAT   L $$aZ4BBCMER$$b20$$c20111206$$lMAI60$$h1445
000168422 CAT   L $$aZ4BBCMER$$b20$$c20111206$$lMAI60$$h1445
000168422 CAT   L $$aZ4BBCLD$$b20$$c20130103$$lMAI60$$h1509
000168422 CAT   L $$aZ5ABCLAW$$b20$$c20130307$$lMAI60$$h1041
000168422 CAT   L $$aZ5ABCLAW$$b20$$c20131211$$lMAI60$$h1617
000168422 CAT   L $$aZ5ABCLAW$$b20$$c20141015$$lMAI60$$h1333
000168422 CAT   L $$aZ5ABCLAW$$b20$$c20141015$$lMAI60$$h1335
000168422 CAT   L $$aZ5ABCLAW$$b20$$c20141015$$lMAI60$$h1428
000168422 CAT   L $$aZ5ABCLAW$$b20$$c20141017$$lMAI60$$h1030
000168422 CAT   L $$aZ5ABCLAW$$b20$$c20141211$$lMAI60$$h1326
000168422 CAT   L $$aZ5ABCLAW$$b20$$c20150114$$lMAI60$$h1438
000168422 CAT   L $$aZ5ABCLAW$$b20$$c20150114$$lMAI60$$h1438
000168422 CAT   L $$aZ5ABCLAW$$b20$$c20151209$$lMAI60$$h1329
000168422 CAT   L $$aZ5ABCLAW$$b20$$c20160401$$lMAI60$$h1341
000168422 CAT   L $$aZ5ABCLAW$$b20$$c20161208$$lMAI60$$h1632
000168422 CAT   L $$aZ5ABCLAW$$b20$$c20171206$$lMAI60$$h1504
000168422 CAT   L $$aZ5ABCLAW$$b20$$c20181211$$lMAI60$$h1654
000168422 CAT   L $$aZ5ABCLAW$$b20$$c20190123$$lMAI60$$h1913
000168422 CAT   L $$aZ5ABCLAW$$b20$$c20190123$$lMAI60$$h1913
000168422 CAT   L $$aZ5ABCLAW$$b20$$c20191205$$lMAI60$$h1558
000168422 CAT   L $$aZ5ABCLAW$$b20$$c20191205$$lMAI60$$h1559
000168422 CAT   L $$aZ5ABCLAW$$b20$$c20191205$$lMAI60$$h1559
000168422 CAT   L $$aZ5ABCLAW$$b20$$c20210122$$lMAI60$$h1130
000168422 003   L MdU-BC
000168422 004   L $$aBC0001567511
000168422 004   L $$aBC0001567511.01000
000168422 005   L 20021115
000168422 007   L ta
000168422 008   L ||||||4p^^^^8^^^1001uueng0021115
000168422 022   L $$a0013-094X
000168422 LKR   L $$aHOL$$lMAI01$$b000479061
000168422 852 0 L $$bBC-BC$$cSSTCK
000168422 853   L $$899$$av.$$bno.$$u12$$i(year)$$j(month)$$wm$$yom01
000168422 853X  L $$899$$901000$$a152$$b23$$i2022$$j01$$320220101
000168422 86631 L $$av.129:no.1-51(1996:Jan. 06-Dec. 21),v.130(1997)-v.132(1999),v.133:no.1-51(2000:Jan. 03-Dec. 18),v.134:no.1-27,29-49(2001:Jan. 01-July 02,July 16-Dec. 17),v.135:no.1-38,40-46(Jan. 07-Oct. 21,Nov. 04-Dec. 16),v.136:no.1-45(2003:Jan. 06-Dec. 15),v.137(2004)-v.139(2006),v.140:no.1-6,8-12(2007:Jan.-June,Aug.-Dec.),v.141(2008)-v.142(2009),v.143:no.1,3-12(2010:Jan.,Mar.-Dec.),v.144(2011)-$$xHoldings updated 10/15/14 LW
000168479 OWN   L $$aBCHOL
000168479 FMT   L HO
000168479 LDR   L 00000ny^^^22000003n^4500
000168479 CAT   L $$aCONV$$b20$$c20021125$$lMAI60$$h1352
000168479 CAT   L $$aZ4BBCMER$$b20$$c20040220$$lMAI60$$h1054
000168479 CAT   L $$aZ4BBCMER$$b20$$c20040220$$lMAI60$$h1054
000168479 CAT   L $$aZ4BBCMER$$b20$$c20040220$$lMAI60$$h1054
000168479 CAT   L $$aZ5ABCLAW$$b20$$c20040811$$lMAI60$$h1157
000168479 CAT   L $$aZ5ABCLAW$$b20$$c20040811$$lMAI60$$h1158
000168479 CAT   L $$aZ4BBCMER$$b20$$c20041103$$lMAI60$$h1740
000168479 CAT   L $$aZ5ABCLAW$$b20$$c20060209$$lMAI60$$h1553
000168479 CAT   L $$aZ5ABCLAW$$b20$$c20060209$$lMAI60$$h1554
000168479 CAT   L $$aZ5ABCLAW$$b20$$c20060613$$lMAI60$$h1804
000168479 CAT   L $$aZ5ABCLAW$$b20$$c20060613$$lMAI60$$h1804
000168479 CAT   L $$aZ6BCJET$$b20$$c20070306$$lMAI60$$h1246
000168479 CAT   L $$aZ4BBCMER$$b20$$c20080204$$lMAI60$$h2207
000168479 CAT   L $$aZ4BBCMER$$b20$$c20080204$$lMAI60$$h2209
000168479 CAT   L $$aZ4BBCMER$$b20$$c20080204$$lMAI60$$h2209
000168479 CAT   L $$aZ4BBCMER$$b20$$c20080605$$lMAI60$$h1434
000168479 CAT   L $$aZ4BBCLD$$b20$$c20081216$$lMAI60$$h2154
000168479 CAT   L $$aZ4BBCMER$$b20$$c20090323$$lMAI60$$h1821
000168479 CAT   L $$aZ4BBCMER$$b20$$c20090323$$lMAI60$$h1821
000168479 CAT   L $$aZ4BBCMER$$b20$$c20090323$$lMAI60$$h1822
000168479 CAT   L $$aZ4BBCMER$$b20$$c20090323$$lMAI60$$h1823
000168479 CAT   L $$aZ4BBCMER$$b20$$c20090323$$lMAI60$$h1823
000168479 CAT   L $$aZ4BBCMER$$b20$$c20090323$$lMAI60$$h1824
000168479 CAT   L $$aZ4BBCLD$$b20$$c20090726$$lMAI60$$h1406
000168479 CAT   L $$aZ4BBCMER$$b20$$c20100104$$lMAI60$$h1302
000168479 CAT   L $$aZ4BBCMER$$b20$$c20100104$$lMAI60$$h1303
000168479 CAT   L $$aD4BCLAW$$b20$$c20100106$$lMAI60$$h1358
000168479 CAT   L $$aD4BCLAW$$b20$$c20100106$$lMAI60$$h1405
000168479 CAT   L $$aD4BCLAW$$b20$$c20100106$$lMAI60$$h1414
000168479 CAT   L $$aZ4BBCMER$$b20$$c20110111$$lMAI60$$h1826
000168479 CAT   L $$aZ4BBCMER$$b20$$c20110111$$lMAI60$$h1827
000168479 CAT   L $$aZ4BBCMER$$b20$$c20110111$$lMAI60$$h1827
000168479 CAT   L $$aZ5ABCLAW$$b20$$c20110329$$lMAI60$$h1306
000168479 CAT   L $$aZ4BBCMER$$b20$$c20120103$$lMAI60$$h1803
000168479 CAT   L $$aZ4BBCMER$$b20$$c20120126$$lMAI60$$h1542
000168479 CAT   L $$aZ4BBCMER$$b20$$c20120126$$lMAI60$$h1542
000168479 CAT   L $$aZ5ABCLAW$$b20$$c20130212$$lMAI60$$h1533
000168479 CAT   L $$aZ5ABCLAW$$b20$$c20131217$$lMAI60$$h1655
000168479 CAT   L $$aZ5ABCLAW$$b20$$c20140218$$lMAI60$$h1527
000168479 CAT   L $$aZ5ABCLAW$$b20$$c20140218$$lMAI60$$h1528
000168479 CAT   L $$aZ5ABCLD$$b20$$c20150211$$lMAI60$$h1544
000168479 CAT   L $$aZ5ABCLAW$$b20$$c20150310$$lMAI60$$h1734
000168479 CAT   L $$aZ5ABCLD$$b20$$c20160104$$lMAI60$$h1748
000168479 CAT   L $$aD5BCLAW$$b20$$c20161110$$lMAI60$$h1659
000168479 CAT   L $$aZ5ABCLAW$$b20$$c20170104$$lMAI60$$h1412
000168479 CAT   L $$aZ5ABCLAW$$b20$$c20170216$$lMAI60$$h1205
000168479 CAT   L $$aZ5ABCLAW$$b20$$c20170216$$lMAI60$$h1205
000168479 CAT   L $$aZ5ABCLAW$$b20$$c20180104$$lMAI60$$h1738
000168479 CAT   L $$aZ5ABCLAW$$b20$$c20180130$$lMAI60$$h1027
000168479 CAT   L $$aZ5ABCLAW$$b20$$c20180130$$lMAI60$$h1041
000168479 CAT   L $$aZ5ABCLAW$$b20$$c20180130$$lMAI60$$h1042
000168479 CAT   L $$aZ5ABCLAW$$b20$$c20180130$$lMAI60$$h1042
000168479 CAT   L $$aZ5ABCLAW$$b20$$c20180130$$lMAI60$$h1043
000168479 CAT   L $$aZ5ABCLAW$$b20$$c20180130$$lMAI60$$h1045
000168479 CAT   L $$aZ5ABCLAW$$b20$$c20190115$$lMAI60$$h1139
000168479 CAT   L $$aZ5ABCLAW$$b20$$c20191010$$lMAI60$$h1125
000168479 CAT   L $$aZ5ABCLAW$$b20$$c20191205$$lMAI60$$h1620
000168479 CAT   L $$aZ5ABCLAW$$b20$$c20210122$$lMAI60$$h1132
000168479 003   L MdU-BC
000168479 004   L $$aBC0001568230
000168479 004   L $$aBC0001568230.01000
000168479 005   L 20021001
000168479 007   L ta
000168479 008   L ||||||4p^^^^8^^^1001uufre0021001
000168479 022   L $$a0014-0759
000168479 LKR   L $$aHOL$$lMAI01$$b000479263
000168479 852 0 L $$bBC-BC$$cSSTCK
000168479 853   L $$899$$ano.$$u10$$vc$$i(year)$$j(month)$$wm$$yom02,08
000168479 853X  L $$899$$901000$$a481$$i2022$$j01$$320220101
000168479 86631 L $$ano.421(2016:janv.)-$$xHoldings updated 11/10/16 LW;JSTOR update 10/10/19 LW
000170310 OWN   L $$aBCHOL
000170310 FMT   L HO
000170310 LDR   L 00000ny^^^22000003n^4500
000170310 CAT   L $$aCONV$$b20$$c20021125$$lMAI60$$h1352
000170310 CAT   L $$aZ6BCLAW$$b20$$c20030304$$lMAI60$$h1635
000170310 CAT   L $$aZ6BCLAW$$b20$$c20030304$$lMAI60$$h1635
000170310 CAT   L $$aZ4BBCMER$$b20$$c20031201$$lMAI60$$h1940
000170310 CAT   L $$aZ4BBCMER$$b20$$c20041201$$lMAI60$$h1754
000170310 CAT   L $$aZ5ABCLAW$$b20$$c20060110$$lMAI60$$h1514
000170310 CAT   L $$aZ5ABCLAW$$b20$$c20060110$$lMAI60$$h1514
000170310 CAT   L $$aZ5ABCLAW$$b20$$c20070104$$lMAI60$$h1058
000170310 CAT   L $$aZ5ABCLAW$$b20$$c20070104$$lMAI60$$h1058
000170310 CAT   L $$aZ4BBCMER$$b20$$c20080110$$lMAI60$$h1756
000170310 CAT   L $$aZ4BBCMER$$b20$$c20080512$$lMAI60$$h1644
000170310 CAT   L $$aZ4BBCMER$$b20$$c20091109$$lMAI60$$h2157
000170310 CAT   L $$aZ4BBCMER$$b20$$c20091208$$lMAI60$$h2158
000170310 CAT   L $$aZ4BBCMER$$b20$$c20100113$$lMAI60$$h1617
000170310 CAT   L $$aZ4BBCMER$$b20$$c20100113$$lMAI60$$h1617
000170310 CAT   L $$aZ4BBCMER$$b20$$c20100217$$lMAI60$$h1153
000170310 CAT   L $$aZ4BBCMER$$b20$$c20100217$$lMAI60$$h1236
000170310 CAT   L $$aZ4BBCMER$$b20$$c20100329$$lMAI60$$h1921
000170310 CAT   L $$aZ4BBCMER$$b20$$c20100412$$lMAI60$$h2121
000170310 CAT   L $$aZ4BBCMER$$b20$$c20100517$$lMAI60$$h1817
000170310 CAT   L $$aZ4BBCMER$$b20$$c20100616$$lMAI60$$h1935
000170310 CAT   L $$aZ4BBCMER$$b20$$c20100708$$lMAI60$$h1535
000170310 CAT   L $$aZ4BBCMER$$b20$$c20100708$$lMAI60$$h1535
000170310 CAT   L $$aZ4BBCMER$$b20$$c20100817$$lMAI60$$h1506
000170310 CAT   L $$aZ4BBCMER$$b20$$c20100817$$lMAI60$$h1506
000170310 CAT   L $$aZ5ABCLAW$$b20$$c20100921$$lMAI60$$h1550
000170310 CAT   L $$aZ5ABCLAW$$b20$$c20100921$$lMAI60$$h1550
000170310 CAT   L $$aZ5ABCLAW$$b20$$c20101012$$lMAI60$$h1436
000170310 CAT   L $$aZ5ABCLAW$$b20$$c20101012$$lMAI60$$h1436
000170310 CAT   L $$aZ4BBCMER$$b20$$c20101116$$lMAI60$$h1347
000170310 CAT   L $$aZ4BBCMER$$b20$$c20101116$$lMAI60$$h1348
000170310 CAT   L $$aZ4BBCMER$$b20$$c20101116$$lMAI60$$h1349
000170310 CAT   L $$aZ4BBCMER$$b20$$c20101116$$lMAI60$$h1349
000170310 CAT   L $$aZ4BBCMER$$b20$$c20101116$$lMAI60$$h1349
000170310 CAT   L $$aZ5ABCLAW$$b20$$c20110907$$lMAI60$$h1452
000170310 CAT   L $$aZ5ABCLAW$$b20$$c20110907$$lMAI60$$h1453
000170310 CAT   L $$aZ4BBCMER$$b20$$c20120103$$lMAI60$$h2012
000170310 CAT   L $$aZ5ABCLAW$$b20$$c20130115$$lMAI60$$h1505
000170310 CAT   L $$aZ5ABCLAW$$b20$$c20131211$$lMAI60$$h1658
000170310 CAT   L $$aZ5ABCLD$$b20$$c20141209$$lMAI60$$h1636
000170310 CAT   L $$aZ5ABCLD$$b20$$c20151109$$lMAI60$$h1615
000170310 CAT   L $$aZ5ABCLAW$$b20$$c20161208$$lMAI60$$h1410
000170310 CAT   L $$aZ5ABCLAW$$b20$$c20171212$$lMAI60$$h1517
000170310 CAT   L $$aZ5ABCLAW$$b20$$c20181211$$lMAI60$$h1713
000170310 CAT   L $$aZ4ABCEB$$b20$$c20200123$$lMAI60$$h1009
000170310 CAT   L $$aZ5ABCLAW$$b20$$c20210122$$lMAI60$$h1237
000170310 003   L MdU-BC
000170310 004   L $$aBC0001605044
000170310 004   L $$aBC0001605044.01000
000170310 005   L 20021116
000170310 007   L ta
000170310 008   L ||||||4p^^^^8^^^1001uueng0021116
000170310 022   L $$a0031-9228
000170310 LKR   L $$aHOL$$lMAI01$$b000486249
000170310 852 0 L $$bBC-BC$$cSSTCK
000170310 853   L $$899$$av.$$bno.$$u12$$vr$$i(year)$$j(month)$$wm
000170310 853X  L $$899$$901000$$a75$$b1$$i2022$$j01$$320220101
000170310 86631 L $$av.1:no.1(1948:May)-v.3:no.3(1950:Mar.),v.3:no.11(1950:Nov.),v.4:no.2-11(1951:Feb.-Nov.),v.5:no.1(1952:Jan.),v.5:no.4(1952:Apr.),v.5:no.6-10(1952:June-Oct.),v.5:no.12(1952:Dec.)-v.8:no.1(1955:Jan.),v.8:no.3-7(1955:Mar.-July),v.8:no.9(1955:Sept.)-v.10:no.5(1957:May),v.10:no.7(1957:July)-v.12:no.10(1959:Oct.),v.12:no.12(1959:Dec.)-$$xHoldings updated 9/7/11 LW
000171872 OWN   L $$aBCHOL
000171872 FMT   L HO
000171872 LDR   L 00000ny^^^22000003n^4500
000171872 CAT   L $$aCONV$$b20$$c20021125$$lMAI60$$h1352
000171872 CAT   L $$aZ4BBCMER$$b20$$c20040517$$lMAI60$$h1905
000171872 CAT   L $$aZ4BBCMER$$b20$$c20040517$$lMAI60$$h1905
000171872 CAT   L $$aZ4BBCMER$$b20$$c20040517$$lMAI60$$h1905
000171872 CAT   L $$aZ5ABCLAW$$b20$$c20060613$$lMAI60$$h1338
000171872 CAT   L $$aZ5ABCLAW$$b20$$c20060613$$lMAI60$$h1340
000171872 CAT   L $$aZ5ABCLAW$$b20$$c20061121$$lMAI60$$h1310
000171872 CAT   L $$aZ5ABCLAW$$b20$$c20061121$$lMAI60$$h1310
000171872 CAT   L $$aZ4BBCMER$$b20$$c20080721$$lMAI60$$h2114
000171872 CAT   L $$aZ4BBCMER$$b20$$c20080721$$lMAI60$$h2114
000171872 CAT   L $$aZ4BBCMER$$b20$$c20091112$$lMAI60$$h1825
000171872 CAT   L $$aZ4BBCMER$$b20$$c20100412$$lMAI60$$h2023
000171872 CAT   L $$aZ5ABCLAW$$b20$$c20110524$$lMAI60$$h1354
000171872 CAT   L $$aZ5ABCLAW$$b20$$c20110921$$lMAI60$$h1058
000171872 CAT   L $$aZ4BBCMER$$b20$$c20111117$$lMAI60$$h1544
000171872 CAT   L $$aZ5ABCSHUGH$$b20$$c20120703$$lMAI60$$h1002
000171872 CAT   L $$aZ5ABCLAW$$b20$$c20130321$$lMAI60$$h1443
000171872 CAT   L $$aZ5ABCLD$$b20$$c20140410$$lMAI60$$h1449
000171872 CAT   L $$aZ5ABCLD$$b20$$c20150623$$lMAI60$$h1903
000171872 CAT   L $$aZ5ABCLD$$b20$$c20161003$$lMAI60$$h1442
000171872 CAT   L $$aZ5ABCLAW$$b20$$c20170706$$lMAI60$$h1117
000171872 CAT   L $$aZ5ABCLAW$$b20$$c20180124$$lMAI60$$h1251
000171872 CAT   L $$aZ5ABCLAW$$b20$$c20180124$$lMAI60$$h1252
000171872 CAT   L $$aZ5ABCLAW$$b20$$c20180124$$lMAI60$$h1254
000171872 CAT   L $$aZ5ABCLAW$$b20$$c20180124$$lMAI60$$h1255
000171872 CAT   L $$aZ5ABCLAW$$b20$$c20191121$$lMAI60$$h1555
000171872 CAT   L $$aZ4ABCEB$$b20$$c20201117$$lMAI60$$h1156
000171872 CAT   L $$aZ5ABCLAW$$b20$$c20210122$$lMAI60$$h1150
000171872 003   L MdU-BC
000171872 004   L $$aBC0001641765
000171872 004   L $$aBC0001641765.01000
000171872 005   L 20021028
000171872 007   L ta
000171872 008   L ||||||4p^^^^8^^^1001uueng0021028
000171872 022   L $$a0075-4234
000171872 LKR   L $$aHOL$$lMAI01$$b000492678
000171872 852 0 L $$bBC-BC$$cSSTCK
000171872 853   L $$899$$av.$$bno.$$u2$$vr$$i(year)$$j(month)$$wf
000171872 853X  L $$899$$901000$$a108$$b1$$i2022$$j06$$320220601
000171872 86631 L $$av.62(1976)-$$xHoldings updated 5/25/11 LW
000171927 OWN   L $$aBCHOL
000171927 FMT   L HO
000171927 LDR   L 00000ny^^^22000003n^4500
000171927 CAT   L $$aCONV$$b20$$c20021125$$lMAI60$$h1352
000171927 CAT   L $$aZ6BCLAW$$b20$$c20030716$$lMAI60$$h1537
000171927 CAT   L $$aZ6BCLAW$$b20$$c20030716$$lMAI60$$h1538
000171927 CAT   L $$aZ4BBCMER$$b20$$c20031125$$lMAI60$$h1942
000171927 CAT   L $$aZ6BCJET$$b20$$c20050126$$lMAI60$$h1648
000171927 CAT   L $$aZ5ABCLAW$$b20$$c20050916$$lMAI60$$h1410
000171927 CAT   L $$aZ5ABCLAW$$b20$$c20050916$$lMAI60$$h1410
000171927 CAT   L $$aZ5ABCLAW$$b20$$c20070314$$lMAI60$$h1020
000171927 CAT   L $$aZ5ABCLAW$$b20$$c20070314$$lMAI60$$h1020
000171927 CAT   L $$aZ5ABCLAW$$b20$$c20070314$$lMAI60$$h1020
000171927 CAT   L $$aZ4BBCMER$$b20$$c20071219$$lMAI60$$h1641
000171927 CAT   L $$aZ4BBCMER$$b20$$c20080317$$lMAI60$$h1430
000171927 CAT   L $$aZ4BBCMER$$b20$$c20091202$$lMAI60$$h1644
000171927 CAT   L $$aZ4BBCMER$$b20$$c20091202$$lMAI60$$h2125
000171927 CAT   L $$aZ4BBCMER$$b20$$c20100324$$lMAI60$$h1935
000171927 CAT   L $$aZ4BBCMER$$b20$$c20100324$$lMAI60$$h1940
000171927 CAT   L $$aZ4BBCMER$$b20$$c20100324$$lMAI60$$h1942
000171927 CAT   L $$aZ4BBCMER$$b20$$c20100324$$lMAI60$$h1942
000171927 CAT   L $$aZ4BBCMER$$b20$$c20101213$$lMAI60$$h1804
000171927 CAT   L $$aZ4BBCMER$$b20$$c20111215$$lMAI60$$h1244
000171927 CAT   L $$aZ5ABCLAW$$b20$$c20130308$$lMAI60$$h1020
000171927 CAT   L $$aZ5ABCLAW$$b20$$c20130719$$lMAI60$$h1238
000171927 CAT   L $$aZ5ABCLAW$$b20$$c20131024$$lMAI60$$h1042
000171927 CAT   L $$aZ5ABCLAW$$b20$$c20131024$$lMAI60$$h1052
000171927 CAT   L $$aZ5ABCLAW$$b20$$c20131204$$lMAI60$$h1652
000171927 CAT   L $$aZ5ABCLAW$$b20$$c20140603$$lMAI60$$h1044
000171927 CAT   L $$aZ5ABCLAW$$b20$$c20140603$$lMAI60$$h1046
000171927 CAT   L $$aZ5ABCLAW$$b20$$c20140610$$lMAI60$$h1635
000171927 CAT   L $$aZ5ABCLAW$$b20$$c20141201$$lMAI60$$h1625
000171927 CAT   L $$aZ5ABCLAW$$b20$$c20151209$$lMAI60$$h1415
000171927 CAT   L $$aD5BCBEH$$b20$$c20161130$$lMAI60$$h1523
000171927 CAT   L $$aZ5ABCLAW$$b20$$c20161213$$lMAI60$$h1248
000171927 CAT   L $$aZ5ABCLAW$$b20$$c20171206$$lMAI60$$h1507
000171927 CAT   L $$aZ5ABCLAW$$b20$$c20181212$$lMAI60$$h1448
000171927 CAT   L $$aZ4ABCEB$$b20$$c20191002$$lMAI60$$h0938
000171927 CAT   L $$aZ4ABCEB$$b20$$c20191002$$lMAI60$$h1027
000171927 CAT   L $$aZ4ABCEB$$b20$$c20191016$$lMAI60$$h0829
000171927 CAT   L $$aZ5ABCLAW$$b20$$c20191204$$lMAI60$$h1142
000171927 CAT   L $$aZ5ABCLAW$$b20$$c20210122$$lMAI60$$h1327
000171927 003   L MdU-BC
000171927 004   L $$aBC0001642879
000171927 004   L $$aBC0001642879.01000
000171927 005   L 20021114
000171927 007   L ta
000171927 008   L ||||||4p^^^^8^^^1001uueng0021114
000171927 022   L $$a0042-6636
000171927 LKR   L $$aHOL$$lMAI01$$b000492857
000171927 852 0 L $$bBC-BC$$cSSTCK
000171927 853   L $$899$$av.$$bno.$$u4$$vr$$i(year)$$j(month)$$wq
000171927 853X  L $$899$$901000$$a130$$b1$$i2022$$k01$$320220101
000171927 86631 L $$av.124(2016)-$$xHoldings updated 11/30/2016 BEH; JSTOR update 10/2/19 EB
000175840 OWN   L $$aBCHOL
000175840 FMT   L HO
000175840 LDR   L 00000ny^^^22000003n^4500
000175840 CAT   L $$aCONV$$b20$$c20021125$$lMAI60$$h1353
000175840 CAT   L $$aZ4BBCMER$$b20$$c20040414$$lMAI60$$h1659
000175840 CAT   L $$aZ4BBCMER$$b20$$c20040414$$lMAI60$$h1659
000175840 CAT   L $$aZ4BBCMER$$b20$$c20040414$$lMAI60$$h1659
000175840 CAT   L $$aZ6BCJET$$b20$$c20040625$$lMAI60$$h1140
000175840 CAT   L $$aZ5ABCLAW$$b20$$c20041021$$lMAI60$$h1102
000175840 CAT   L $$aZ4BBCSTU$$b20$$c20041218$$lMAI60$$h1619
000175840 CAT   L $$aZ6BCJET$$b20$$c20051212$$lMAI60$$h1646
000175840 CAT   L $$aZ5ABCLAW$$b20$$c20060915$$lMAI60$$h1528
000175840 CAT   L $$aZ5ABCLAW$$b20$$c20060915$$lMAI60$$h1528
000175840 CAT   L $$aZ4BBCMER$$b20$$c20080110$$lMAI60$$h1422
000175840 CAT   L $$aZ4BBCMER$$b20$$c20081201$$lMAI60$$h1843
000175840 CAT   L $$aZ4BBCMER$$b20$$c20091209$$lMAI60$$h1549
000175840 CAT   L $$aZ4BBCMER$$b20$$c20100218$$lMAI60$$h1736
000175840 CAT   L $$aZ4BBCMER$$b20$$c20100415$$lMAI60$$h2143
000175840 CAT   L $$aZ4BBCMER$$b20$$c20100415$$lMAI60$$h2143
000175840 CAT   L $$aZ4BBCMER$$b20$$c20110316$$lMAI60$$h1842
000175840 CAT   L $$aZ4BBCMER$$b20$$c20110316$$lMAI60$$h1847
000175840 CAT   L $$aZ4BBCMER$$b20$$c20110316$$lMAI60$$h1847
000175840 CAT   L $$aZ5ABCLAW$$b20$$c20110421$$lMAI60$$h1053
000175840 CAT   L $$aZ5ABCLAW$$b20$$c20110421$$lMAI60$$h1054
000175840 CAT   L $$aZ5ABCLAW$$b20$$c20130308$$lMAI60$$h1653
000175840 CAT   L $$aZ5ABCLAW$$b20$$c20130308$$lMAI60$$h1654
000175840 CAT   L $$aZ5ABCLAW$$b20$$c20130308$$lMAI60$$h1654
000175840 CAT   L $$aZ5ABCLAW$$b20$$c20140205$$lMAI60$$h1410
000175840 CAT   L $$aZ5ABCLAW$$b20$$c20140501$$lMAI60$$h1420
000175840 CAT   L $$aZ6BCKSS$$b20$$c20140930$$lMAI60$$h1048
000175840 CAT   L $$aZ5ABCLD$$b20$$c20150106$$lMAI60$$h1652
000175840 CAT   L $$aZ5ABCLD$$b20$$c20150106$$lMAI60$$h1653
000175840 CAT   L $$aZ5ABCLD$$b20$$c20150126$$lMAI60$$h1627
000175840 CAT   L $$aZ5ABCLD$$b20$$c20150126$$lMAI60$$h1629
000175840 CAT   L $$aZ5ABCLAW$$b20$$c20150804$$lMAI60$$h1432
000175840 CAT   L $$aZ5ABCLAW$$b20$$c20150804$$lMAI60$$h1434
000175840 CAT   L $$aZ5ABCLAW$$b20$$c20150804$$lMAI60$$h1434
000175840 CAT   L $$aZ5ABCLAW$$b20$$c20150804$$lMAI60$$h1437
000175840 CAT   L $$aZ5ABCLD$$b20$$c20160119$$lMAI60$$h1427
000175840 CAT   L $$aZ5ABCLAW$$b20$$c20160720$$lMAI60$$h1526
000175840 CAT   L $$aZ5ABCLAW$$b20$$c20160930$$lMAI60$$h1300
000175840 CAT   L $$aZ5ABCLAW$$b20$$c20170405$$lMAI60$$h1340
000175840 CAT   L $$aZ5ABCLAW$$b20$$c20170405$$lMAI60$$h1341
000175840 CAT   L $$aZ5ABCLAW$$b20$$c20170405$$lMAI60$$h1342
000175840 CAT   L $$aZ5ABCLAW$$b20$$c20170405$$lMAI60$$h1342
000175840 CAT   L $$aZ5ABCLAW$$b20$$c20180110$$lMAI60$$h1723
000175840 CAT   L $$aZ5ABCLAW$$b20$$c20190117$$lMAI60$$h1055
000175840 CAT   L $$aZ4ABCEB$$b20$$c20200106$$lMAI60$$h1449
000175840 CAT   L $$aZ5ABCLAW$$b20$$c20210122$$lMAI60$$h1139
000175840 003   L MdU-BC
000175840 004   L $$aBC0001753019
000175840 004   L $$aBC0001753019.01000
000175840 005   L 20021019
000175840 007   L ta
000175840 008   L ||||||4p^^^^8^^^1001uueng0021019
000175840 022   L $$a0022-2518
000175840 LKR   L $$aHOL$$lMAI01$$b000510380
000175840 852 0 L $$bBC-BC$$cSSTCK
000175840 853   L $$899$$av.$$bno.$$u6$$vr$$i(year)$$wb
000175840 853X  L $$899$$901000$$a71$$b1$$i2022$$320220101
000175840 86631 L $$av.20:no.7(1971:Jan.)-v.64:no.6(2015),v.66:no.1(2017)-$$xHoldings updated 4/21/11 LW 09/30/14 KSS;Print & Online ordered for 2017 4/5/17 LW
000175915 OWN   L $$aBCHOL
000175915 FMT   L HO
000175915 LDR   L 00000ny^^^22000003n^4500
000175915 CAT   L $$aCONV$$b20$$c20021125$$lMAI60$$h1353
000175915 CAT   L $$aZ5ABCLAW$$b20$$c20041109$$lMAI60$$h1900
000175915 CAT   L $$aZ5ABCLAW$$b20$$c20041109$$lMAI60$$h1901
000175915 CAT   L $$aZ5ABCLAW$$b20$$c20041109$$lMAI60$$h1902
000175915 CAT   L $$aZ6BCJET$$b20$$c20041223$$lMAI60$$h1638
000175915 CAT   L $$aZ6BCJET$$b20$$c20041223$$lMAI60$$h1638
000175915 CAT   L $$aZ5ABCLAW$$b20$$c20061024$$lMAI60$$h1526
000175915 CAT   L $$aZ5ABCLAW$$b20$$c20061024$$lMAI60$$h1526
000175915 CAT   L $$aZ5ABCLAW$$b20$$c20070209$$lMAI60$$h1327
000175915 CAT   L $$aZ5ABCLAW$$b20$$c20070209$$lMAI60$$h1327
000175915 CAT   L $$aZ5ABCLAW$$b20$$c20080229$$lMAI60$$h1105
000175915 CAT   L $$aZ5ABCLAW$$b20$$c20090217$$lMAI60$$h1743
000175915 CAT   L $$aZ5ABCLAW$$b20$$c20090219$$lMAI60$$h1218
000175915 CAT   L $$aZ4BBCMER$$b20$$c20090304$$lMAI60$$h1506
000175915 CAT   L $$aZ4BBCMER$$b20$$c20100217$$lMAI60$$h2210
000175915 CAT   L $$aZ4BBCMER$$b20$$c20110420$$lMAI60$$h1541
000175915 CAT   L $$aZ4BBCMER$$b20$$c20110420$$lMAI60$$h1542
000175915 CAT   L $$aZ4BBCMER$$b20$$c20110420$$lMAI60$$h1544
000175915 CAT   L $$aZ4BBCMER$$b20$$c20110420$$lMAI60$$h1547
000175915 CAT   L $$aZ4BBCMER$$b20$$c20110420$$lMAI60$$h1547
000175915 CAT   L $$aZ5ABCLAW$$b20$$c20110512$$lMAI60$$h1547
000175915 CAT   L $$aZ5ABCLAW$$b20$$c20120323$$lMAI60$$h1007
000175915 CAT   L $$aZ5ABCLAW$$b20$$c20130214$$lMAI60$$h1437
000175915 CAT   L $$aZ5ABCLAW$$b20$$c20131112$$lMAI60$$h1452
000175915 CAT   L $$aZ5ABCLD$$b20$$c20150211$$lMAI60$$h1601
000175915 CAT   L $$aZ5ABCLAW$$b20$$c20151118$$lMAI60$$h1417
000175915 CAT   L $$aZ5ABCLAW$$b20$$c20170124$$lMAI60$$h1526
000175915 CAT   L $$aZ5ABCLAW$$b20$$c20171207$$lMAI60$$h1519
000175915 CAT   L $$aZ5ABCLAW$$b20$$c20190222$$lMAI60$$h1442
000175915 CAT   L $$aZ4ABCEB$$b20$$c20200103$$lMAI60$$h1200
000175915 CAT   L $$aZ5ABCLAW$$b20$$c20210122$$lMAI60$$h1145
000175915 003   L MdU-BC
000175915 004   L $$aBC0001753943
000175915 004   L $$aBC0001753943.01000
000175915 005   L 20021023
000175915 007   L ta
000175915 008   L ||||||4p^^^^8^^^1001uueng0021023
000175915 022   L $$a0021-1214
000175915 LKR   L $$aHOL$$lMAI01$$b000510602
000175915 852 0 L $$bBC-BC$$cSSTCK
000175915 853 0 L $$899$$av.$$bno.$$u2$$vc$$i(year)$$j(month)$$wf
000175915 853X  L $$899$$901000$$a48$$b169$$i2022$$j05$$320220501
000175915 86631 L $$av.25:no.98(1986:Nov.)-$$xHoldings updated 5/12/11 LW
000176180 OWN   L $$aBCHOL
000176180 FMT   L HO
000176180 LDR   L 00000ny^^^22000003n^4500
000176180 CAT   L $$aCONV$$b20$$c20021125$$lMAI60$$h1353
000176180 CAT   L $$aZ6BCLAW$$b20$$c20030123$$lMAI60$$h1501
000176180 CAT   L $$aZ6BCLAW$$b20$$c20030123$$lMAI60$$h1501
000176180 CAT   L $$aZ4BBCMER$$b20$$c20031209$$lMAI60$$h1937
000176180 CAT   L $$aZ6BCJET$$b20$$c20050103$$lMAI60$$h0852
000176180 CAT   L $$aZ5ABCLAW$$b20$$c20061005$$lMAI60$$h1854
000176180 CAT   L $$aZ5ABCLAW$$b20$$c20061005$$lMAI60$$h1854
000176180 CAT   L $$aZ4BBCMER$$b20$$c20080211$$lMAI60$$h1834
000176180 CAT   L $$aZ4BBCMER$$b20$$c20081118$$lMAI60$$h2156
000176180 CAT   L $$aZ4BBCMER$$b20$$c20100105$$lMAI60$$h1641
000176180 CAT   L $$aZ4BBCMER$$b20$$c20100105$$lMAI60$$h1642
000176180 CAT   L $$aZ4BBCMER$$b20$$c20100106$$lMAI60$$h1030
000176180 CAT   L $$aZ4BBCMER$$b20$$c20100407$$lMAI60$$h1647
000176180 CAT   L $$aZ4BBCMER$$b20$$c20100616$$lMAI60$$h1638
000176180 CAT   L $$aZ4BBCMER$$b20$$c20101208$$lMAI60$$h1520
000176180 CAT   L $$aZ4BBCMER$$b20$$c20120104$$lMAI60$$h1558
000176180 CAT   L $$aZ5ABCLAW$$b20$$c20130307$$lMAI60$$h1355
000176180 CAT   L $$aZ5ABCLD$$b20$$c20140106$$lMAI60$$h1921
000176180 CAT   L $$aZ5ABCLAW$$b20$$c20141211$$lMAI60$$h1338
000176180 CAT   L $$aZ5ABCLAW$$b20$$c20151202$$lMAI60$$h1459
000176180 CAT   L $$aZ5ABCLAW$$b20$$c20161213$$lMAI60$$h1238
000176180 CAT   L $$aZ5ABCLAW$$b20$$c20171206$$lMAI60$$h1335
000176180 CAT   L $$aZ5ABCLAW$$b20$$c20190124$$lMAI60$$h1237
000176180 CAT   L $$aZ5ABCLAW$$b20$$c20191126$$lMAI60$$h1654
000176180 CAT   L $$aZ5ABCLAW$$b20$$c20210122$$lMAI60$$h1212
000176180 003   L MdU-BC
000176180 004   L $$aBC0001759436
000176180 004   L $$aBC0001759436.01000
000176180 005   L 20021106
000176180 007   L ta
000176180 008   L ||||||4p^^^^8^^^1001uueng0021106
000176180 022   L $$a0028-0283
000176180 LKR   L $$aHOL$$lMAI01$$b000511471
000176180 852 0 L $$bBC-BC$$cSSTCK
000176180 853   L $$899$$av.$$bno.$$u4$$vr$$i(year)$$j(month)$$wq
000176180 853X  L $$899$$901000$$a75$$b1$$i2022$$j03$$320220301
000176180 86631 L $$av.1(1948)-v.22(1969),v.24(1971)-v.32(1979),v.36(1983)-
000177039 OWN   L $$aBCHOL
000177039 FMT   L HO
000177039 LDR   L 00000ny^^^22000003n^4500
000177039 CAT   L $$aCONV$$b20$$c20021125$$lMAI60$$h1353
000177039 CAT   L $$aZ5ABCLAW$$b20$$c20031124$$lMAI60$$h1648
000177039 CAT   L $$aZ5ABCLAW$$b20$$c20031124$$lMAI60$$h1653
000177039 CAT   L $$aZ5ABCLAW$$b20$$c20031124$$lMAI60$$h1659
000177039 CAT   L $$aZ4BBCMER$$b20$$c20041110$$lMAI60$$h1509
000177039 CAT   L $$aZ4BBCMER$$b20$$c20041110$$lMAI60$$h1509
000177039 CAT   L $$aZ4BBCMER$$b20$$c20041110$$lMAI60$$h1509
000177039 CAT   L $$aZ6BCJET$$b20$$c20051115$$lMAI60$$h1624
000177039 CAT   L $$aZ6BCJET$$b20$$c20061116$$lMAI60$$h1555
000177039 CAT   L $$aZ5ABCLAW$$b20$$c20080321$$lMAI60$$h1317
000177039 CAT   L $$aZ4BBCMER$$b20$$c20080415$$lMAI60$$h2042
000177039 CAT   L $$aZ4BBCMER$$b20$$c20100519$$lMAI60$$h1527
000177039 CAT   L $$aZ4BBCMER$$b20$$c20100519$$lMAI60$$h1528
000177039 CAT   L $$aZ4BBCMER$$b20$$c20100519$$lMAI60$$h1529
000177039 CAT   L $$aZ4BBCMER$$b20$$c20100519$$lMAI60$$h1530
000177039 CAT   L $$aZ4BBCMER$$b20$$c20101108$$lMAI60$$h2037
000177039 CAT   L $$aZ5ABCLAW$$b20$$c20110525$$lMAI60$$h0927
000177039 CAT   L $$aZ5ABCLAW$$b20$$c20110525$$lMAI60$$h0928
000177039 CAT   L $$aZ4BBCMER$$b20$$c20111123$$lMAI60$$h1319
000177039 CAT   L $$aZ5ABCLAW$$b20$$c20130426$$lMAI60$$h1416
000177039 CAT   L $$aZ5ABCLAW$$b20$$c20131022$$lMAI60$$h1347
000177039 CAT   L $$aZ5ABCLD$$b20$$c20140414$$lMAI60$$h1457
000177039 CAT   L $$aZ5ABCLD$$b20$$c20151019$$lMAI60$$h1558
000177039 CAT   L $$aZ5ABCLAW$$b20$$c20161117$$lMAI60$$h1425
000177039 CAT   L $$aZ5ABCLAW$$b20$$c20171011$$lMAI60$$h1401
000177039 CAT   L $$aZ5ABCLAW$$b20$$c20181011$$lMAI60$$h1503
000177039 CAT   L $$aZ5ABCLAW$$b20$$c20191003$$lMAI60$$h1621
000177039 CAT   L $$aZ5ABCLAW$$b20$$c20210122$$lMAI60$$h1152
000177039 003   L MdU-BC
000177039 004   L $$aBC0001782554
000177039 004   L $$aBC0001782554.01000
000177039 005   L 20021030
000177039 007   L ta
000177039 008   L ||||||4p^^^^8^^^1001uueng0021030
000177039 022   L $$a0022-2097
000177039 LKR   L $$aHOL$$lMAI01$$b000514652
000177039 852 0 L $$bBC-BC$$cSSTCK
000177039 853   L $$899$$av.$$bno.$$u2$$vr$$i(year)$$j(season)$$wf$$yps21,23
000177039 853X  L $$899$$901000$$a73$$b1$$i2022$$j21$$320220301
000177039 86631 L $$av.34:no.1(1983:spring)-$$xHoldings updated 5/25/11 LW
000189517 OWN   L $$aBCHOL
000189517 FMT   L HO
000189517 LDR   L 00000ny^^^22000003n^4500
000189517 CAT   L $$aCONV$$b20$$c20021125$$lMAI60$$h1353
000189517 CAT   L $$aZ5ABCLAW$$b20$$c20040218$$lMAI60$$h1759
000189517 CAT   L $$aZ5ABCLAW$$b20$$c20040218$$lMAI60$$h1803
000189517 CAT   L $$aZ5ABCLAW$$b20$$c20040219$$lMAI60$$h1645
000189517 CAT   L $$aZ5ABCLAW$$b20$$c20040219$$lMAI60$$h1645
000189517 CAT   L $$aZ6BCJET$$b20$$c20041123$$lMAI60$$h1254
000189517 CAT   L $$aZ5ABCLAW$$b20$$c20050608$$lMAI60$$h1744
000189517 CAT   L $$aZ5ABCLAW$$b20$$c20050608$$lMAI60$$h1744
000189517 CAT   L $$aZ5ABCLAW$$b20$$c20050901$$lMAI60$$h1022
000189517 CAT   L $$aZ5ABCLAW$$b20$$c20050901$$lMAI60$$h1022
000189517 CAT   L $$aZ5ABCLAW$$b20$$c20060217$$lMAI60$$h0917
000189517 CAT   L $$aZ5ABCLAW$$b20$$c20060217$$lMAI60$$h0918
000189517 CAT   L $$aZ5ABCLAW$$b20$$c20060217$$lMAI60$$h0918
000189517 CAT   L $$aZ5ABCLAW$$b20$$c20070103$$lMAI60$$h1556
000189517 CAT   L $$aZ5ABCLAW$$b20$$c20070103$$lMAI60$$h1556
000189517 CAT   L $$aZ5ABCLAW$$b20$$c20071026$$lMAI60$$h1011
000189517 CAT   L $$aZ5ABCLAW$$b20$$c20071026$$lMAI60$$h1011
000189517 CAT   L $$aZ4BBCMER$$b20$$c20080122$$lMAI60$$h1654
000189517 CAT   L $$aZ4BBCMER$$b20$$c20080122$$lMAI60$$h1655
000189517 CAT   L $$aZ4BBCMER$$b20$$c20080122$$lMAI60$$h1655
000189517 CAT   L $$aZ4BBCMER$$b20$$c20080122$$lMAI60$$h1659
000189517 CAT   L $$aZ4BBCMER$$b20$$c20080122$$lMAI60$$h1700
000189517 CAT   L $$aZ4BBCMER$$b20$$c20080122$$lMAI60$$h1700
000189517 CAT   L $$aZ4BBCMER$$b20$$c20090126$$lMAI60$$h1947
000189517 CAT   L $$aZ4BBCMER$$b20$$c20090126$$lMAI60$$h1947
000189517 CAT   L $$aZ4BBCMER$$b20$$c20090401$$lMAI60$$h1636
000189517 CAT   L $$aZ4BBCMER$$b20$$c20090401$$lMAI60$$h1659
000189517 CAT   L $$aZ4BBCMER$$b20$$c20091119$$lMAI60$$h1502
000189517 CAT   L $$aZ4BBCMER$$b20$$c20091217$$lMAI60$$h1316
000189517 CAT   L $$aZ4BBCMER$$b20$$c20100222$$lMAI60$$h2010
000189517 CAT   L $$aZ4BBCMER$$b20$$c20100325$$lMAI60$$h1548
000189517 CAT   L $$aD4BCLAW$$b20$$c20100402$$lMAI60$$h1502
000189517 CAT   L $$aZ4BBCMER$$b20$$c20100823$$lMAI60$$h1305
000189517 CAT   L $$aZ4BBCMER$$b20$$c20100823$$lMAI60$$h1305
000189517 CAT   L $$aZ4BBCMER$$b20$$c20100823$$lMAI60$$h1306
000189517 CAT   L $$aZ4BBCMER$$b20$$c20100823$$lMAI60$$h1306
000189517 CAT   L $$aZ4BBCMER$$b20$$c20100823$$lMAI60$$h1307
000189517 CAT   L $$aZ4BBCMER$$b20$$c20100823$$lMAI60$$h1307
000189517 CAT   L $$aZ4BBCMER$$b20$$c20100823$$lMAI60$$h1308
000189517 CAT   L $$aZ4BBCMER$$b20$$c20110119$$lMAI60$$h1957
000189517 CAT   L $$aZ4BBCMER$$b20$$c20110119$$lMAI60$$h1957
000189517 CAT   L $$aZ5ABCLAW$$b20$$c20110812$$lMAI60$$h1711
000189517 CAT   L $$aZ5ABCLAW$$b20$$c20110812$$lMAI60$$h1722
000189517 CAT   L $$aZ4BBCMER$$b20$$c20120112$$lMAI60$$h1229
000189517 CAT   L $$aZ4BBCMER$$b20$$c20120112$$lMAI60$$h1230
000189517 CAT   L $$aZ4BBCMER$$b20$$c20120208$$lMAI60$$h1607
000189517 CAT   L $$aZ4BBCMER$$b20$$c20120208$$lMAI60$$h1608
000189517 CAT   L $$aZ4BBCMER$$b20$$c20120208$$lMAI60$$h1608
000189517 CAT   L $$aZ4BBCLD$$b20$$c20130123$$lMAI60$$h1642
000189517 CAT   L $$aZ5ABCLAW$$b20$$c20130220$$lMAI60$$h1459
000189517 CAT   L $$aZ5ABCLAW$$b20$$c20130220$$lMAI60$$h1500
000189517 CAT   L $$aZ5ABCLAW$$b20$$c20130220$$lMAI60$$h1502
000189517 CAT   L $$aZ5ABCLAW$$b20$$c20130220$$lMAI60$$h1502
000189517 CAT   L $$aZ5ABCLAW$$b20$$c20140123$$lMAI60$$h1636
000189517 CAT   L $$aZ5ABCLAW$$b20$$c20140123$$lMAI60$$h1642
000189517 CAT   L $$aZ5ABCLAW$$b20$$c20140123$$lMAI60$$h1646
000189517 CAT   L $$aZ5ABCLAW$$b20$$c20140123$$lMAI60$$h1646
000189517 CAT   L $$aZ5ABCLAW$$b20$$c20140123$$lMAI60$$h1647
000189517 CAT   L $$aZ5ABCLAW$$b20$$c20140123$$lMAI60$$h1648
000189517 CAT   L $$aZ5ABCLAW$$b20$$c20150206$$lMAI60$$h1315
000189517 CAT   L $$aZ5ABCLAW$$b20$$c20151203$$lMAI60$$h1148
000189517 CAT   L $$aZ5ABCLAW$$b20$$c20161020$$lMAI60$$h1638
000189517 CAT   L $$aZ5ABCLAW$$b20$$c20170104$$lMAI60$$h1514
000189517 CAT   L $$aZ5ABCLAW$$b20$$c20171219$$lMAI60$$h1204
000189517 CAT   L $$aZ5ABCLAW$$b20$$c20190104$$lMAI60$$h1506
000189517 CAT   L $$aZ4ABCEB$$b20$$c20191218$$lMAI60$$h1444
000189517 CAT   L $$aZ5ABCLAW$$b20$$c20210122$$lMAI60$$h1204
000189517 003   L MdU-BC
000189517 004   L $$aBC0002111909
000189517 004   L $$aBC0002111909.01000
000189517 005   L 20021012
000189517 007   L ta
000189517 008   L ||||||4p^^^^8^^^1001uueng0021012
000189517 022   L $$a0024-9114
000189517 LKR   L $$aHOL$$lMAI01$$b000566143
000189517 852 0 L $$bBC-BC$$cSCURR
000189517 853   L $$899$$av.$$bno.$$u12$$vr$$i(year)$$j(month)$$wm
000189517 853X  L $$899$$901000$$a94$$b1$$i2022$$j01$$320220101
000189517 86631 L $$av.88(2016)-$$xHoldings updated 8/12/11 LW$$zCurrent 3 issues
000240183 OWN   L $$aBCHOL
000240183 FMT   L HO
000240183 LDR   L 00000ny^^^22000003n^4500
000240183 CAT   L $$aCONV$$b20$$c20021125$$lMAI60$$h1356
000240183 CAT   L $$aZ6BCLAW$$b20$$c20030410$$lMAI60$$h1553
000240183 CAT   L $$aZ6BCLAW$$b20$$c20030410$$lMAI60$$h1555
000240183 CAT   L $$aZ4BBCMER$$b20$$c20040401$$lMAI60$$h1233
000240183 CAT   L $$aZ4BBCMER$$b20$$c20040401$$lMAI60$$h1233
000240183 CAT   L $$aZ5ABCLAW$$b20$$c20050729$$lMAI60$$h1352
000240183 CAT   L $$aZ5ABCLAW$$b20$$c20050729$$lMAI60$$h1353
000240183 CAT   L $$aZ5ABCLAW$$b20$$c20060601$$lMAI60$$h1645
000240183 CAT   L $$aZ5ABCLAW$$b20$$c20060601$$lMAI60$$h1646
000240183 CAT   L $$aZ5ABCLAW$$b20$$c20070412$$lMAI60$$h1834
000240183 CAT   L $$aZ5ABCLAW$$b20$$c20070412$$lMAI60$$h1834
000240183 CAT   L $$aZ4BBCMER$$b20$$c20080416$$lMAI60$$h2136
000240183 CAT   L $$aZ4BBCMER$$b20$$c20100405$$lMAI60$$h1917
000240183 CAT   L $$aZ4BBCMER$$b20$$c20100405$$lMAI60$$h1918
000240183 CAT   L $$aZ4BBCMER$$b20$$c20100405$$lMAI60$$h1919
000240183 CAT   L $$aZ4BBCMER$$b20$$c20110608$$lMAI60$$h1623
000240183 CAT   L $$aZ4BBCMER$$b20$$c20110608$$lMAI60$$h1623
000240183 CAT   L $$aZ4BBCMER$$b20$$c20111128$$lMAI60$$h1842
000240183 CAT   L $$aZ5ABCLAW$$b20$$c20120809$$lMAI60$$h1326
000240183 CAT   L $$aZ5ABCLAW$$b20$$c20131008$$lMAI60$$h1509
000240183 CAT   L $$aZ5ABCLAW$$b20$$c20150224$$lMAI60$$h1353
000240183 CAT   L $$aZ5ABCLAW$$b20$$c20150224$$lMAI60$$h1355
000240183 CAT   L $$aZ5ABCLAW$$b20$$c20160610$$lMAI60$$h1515
000240183 CAT   L $$aZ5ABCLAW$$b20$$c20161213$$lMAI60$$h1523
000240183 CAT   L $$aZ5ABCLAW$$b20$$c20171128$$lMAI60$$h1658
000240183 CAT   L $$aZ5ABCLAW$$b20$$c20190111$$lMAI60$$h1553
000240183 CAT   L $$aZ5ABCLAW$$b20$$c20191211$$lMAI60$$h1716
000240183 CAT   L $$aZ5ABCLAW$$b20$$c20210122$$lMAI60$$h1252
000240183 003   L MdU-BC
000240183 004   L $$aBC0004358708
000240183 004   L $$aBC0004358708.01000
000240183 005   L 20021101
000240183 007   L ta
000240183 008   L ||||||4p^^^^8^^^1001uueng0021101
000240183 022   L $$a0258-1701
000240183 LKR   L $$aHOL$$lMAI01$$b000808757
000240183 852 0 L $$bBC-BC$$cSSTCK
000240183 853   L $$899$$av.$$bno.$$u2$$vr$$i(year)$$j(month)$$wf
000240183 853X  L $$899$$901000$$a47$$b1$$i2022$$j03$$320220301
000240183 86631 L $$av.10(1985)-
000243901 OWN   L $$aBCHOL
000243901 FMT   L HO
000243901 LDR   L 00000ny^^^22000003n^4500
000243901 CAT   L $$aCONV$$b20$$c20021125$$lMAI60$$h1356
000243901 CAT   L $$aZ6BCLAW$$b20$$c20030205$$lMAI60$$h1804
000243901 CAT   L $$aZ6BCLAW$$b20$$c20030205$$lMAI60$$h1805
000243901 CAT   L $$aZ4BBCMER$$b20$$c20040130$$lMAI60$$h1630
000243901 CAT   L $$aZ4BBCMER$$b20$$c20041102$$lMAI60$$h1447
000243901 CAT   L $$aZ5ABCLAW$$b20$$c20050420$$lMAI60$$h1904
000243901 CAT   L $$aZ5ABCLAW$$b20$$c20050420$$lMAI60$$h1904
000243901 CAT   L $$aZ5ABCLAW$$b20$$c20070118$$lMAI60$$h1017
000243901 CAT   L $$aZ5ABCLAW$$b20$$c20070118$$lMAI60$$h1017
000243901 CAT   L $$aZ4BBCMER$$b20$$c20080117$$lMAI60$$h1929
000243901 CAT   L $$aZ4BBCMER$$b20$$c20080624$$lMAI60$$h1809
000243901 CAT   L $$aZ4BBCMER$$b20$$c20090930$$lMAI60$$h1209
000243901 CAT   L $$aZ4BBCMER$$b20$$c20090930$$lMAI60$$h1209
000243901 CAT   L $$aZ4BBCMER$$b20$$c20100119$$lMAI60$$h1642
000243901 CAT   L $$aZ4BBCMER$$b20$$c20100119$$lMAI60$$h1642
000243901 CAT   L $$aZ4BBCMER$$b20$$c20110314$$lMAI60$$h1714
000243901 CAT   L $$aZ4BBCMER$$b20$$c20111212$$lMAI60$$h1344
000243901 CAT   L $$aZ4BBCMER$$b20$$c20111212$$lMAI60$$h1346
000243901 CAT   L $$aZ4BBCMER$$b20$$c20111212$$lMAI60$$h1346
000243901 CAT   L $$aZ5ABCLAW$$b20$$c20130315$$lMAI60$$h1425
000243901 CAT   L $$aZ5ABCLAW$$b20$$c20130315$$lMAI60$$h1425
000243901 CAT   L $$aZ5ABCLD$$b20$$c20131118$$lMAI60$$h1840
000243901 CAT   L $$aZ5ABCLD$$b20$$c20150106$$lMAI60$$h1330
000243901 CAT   L $$aZ5ABCLD$$b20$$c20150923$$lMAI60$$h1508
000243901 CAT   L $$aZ5ABCLAW$$b20$$c20151209$$lMAI60$$h1252
000243901 CAT   L $$aZ5ABCLAW$$b20$$c20151209$$lMAI60$$h1253
000243901 CAT   L $$aZ5ABCLAW$$b20$$c20151209$$lMAI60$$h1253
000243901 CAT   L $$aZ5ABCLD$$b20$$c20161012$$lMAI60$$h1538
000243901 CAT   L $$aZ5ABCLAW$$b20$$c20161220$$lMAI60$$h1528
000243901 CAT   L $$aZ5ABCLAW$$b20$$c20161220$$lMAI60$$h1528
000243901 CAT   L $$aZ5ABCLAW$$b20$$c20170425$$lMAI60$$h1041
000243901 CAT   L $$aZ5ABCLAW$$b20$$c20170425$$lMAI60$$h1041
000243901 CAT   L $$aZ5ABCLAW$$b20$$c20170425$$lMAI60$$h1043
000243901 CAT   L $$aZ5ABCLAW$$b20$$c20171219$$lMAI60$$h1216
000243901 CAT   L $$aZ5ABCLAW$$b20$$c20190219$$lMAI60$$h1515
000243901 CAT   L $$aZ5ABCLAW$$b20$$c20190219$$lMAI60$$h1516
000243901 CAT   L $$aZ5ABCLAW$$b20$$c20190219$$lMAI60$$h1517
000243901 CAT   L $$aZ5ABCLAW$$b20$$c20190219$$lMAI60$$h1517
000243901 CAT   L $$aZ4ABCEB$$b20$$c20191218$$lMAI60$$h1443
000243901 CAT   L $$aZ5ABCLAW$$b20$$c20210122$$lMAI60$$h1231
000243901 003   L MdU-BC
000243901 004   L $$aBC0004576887
000243901 004   L $$aBC0004576887.01000
000243901 005   L 20021023
000243901 007   L ta
000243901 008   L ||||||4p^^^^8^^^1001uufre0021023
000243901 022   L $$a0029-4802
000243901 LKR   L $$aHOL$$lMAI01$$b000827555
000243901 852 0 L $$bBC-BC$$cSSTCK
000243901 853   L $$899$$ano.$$u6$$vc$$i(year)$$j(month)$$wb
000243901 853X  L $$899$$901000$$a652$$i2022$$j01$$320220101
000243901 86631 L $$anos.109-111,115-120(1962),no.145(1965)-
000280327 OWN   L $$aBCHOL
000280327 FMT   L HO
000280327 LDR   L 00000ny^^^22000005i^4500
000280327 CAT   L $$aCONV$$b20$$c20021125$$lMAI60$$h1358
000280327 CAT   L $$aZ4BBCMER$$b20$$c20040504$$lMAI60$$h1451
000280327 CAT   L $$aZ4BBCMER$$b20$$c20040504$$lMAI60$$h1451
000280327 CAT   L $$aZ4BBCMER$$b20$$c20040504$$lMAI60$$h1451
000280327 CAT   L $$aZ4BBCMER$$b20$$c20041210$$lMAI60$$h1025
000280327 CAT   L $$aZ5ABCLAW$$b20$$c20050610$$lMAI60$$h1059
000280327 CAT   L $$aZ5ABCLAW$$b20$$c20050610$$lMAI60$$h1100
000280327 CAT   L $$aZ6BCZQY$$b20$$c20060912$$lMAI60$$h1644
000280327 CAT   L $$aZ6BCZQY$$b20$$c20060912$$lMAI60$$h1645
000280327 CAT   L $$aZ4BBCMER$$b20$$c20070814$$lMAI60$$h1606
000280327 CAT   L $$aZ4BBCMER$$b20$$c20080514$$lMAI60$$h2002
000280327 CAT   L $$aZ4BBCMER$$b20$$c20080514$$lMAI60$$h2002
000280327 CAT   L $$aZ5ABCLAW$$b20$$c20090217$$lMAI60$$h1309
000280327 CAT   L $$aZ5ABCLAW$$b20$$c20090217$$lMAI60$$h1310
000280327 CAT   L $$aZ5ABCLAW$$b20$$c20090218$$lMAI60$$h1351
000280327 CAT   L $$aZ4BBCMER$$b20$$c20090804$$lMAI60$$h1549
000280327 CAT   L $$aZ4BBCMER$$b20$$c20090804$$lMAI60$$h1549
000280327 CAT   L $$aZ5ABCLAW$$b20$$c20091007$$lMAI60$$h1514
000280327 CAT   L $$aZ5ABCLAW$$b20$$c20091007$$lMAI60$$h1514
000280327 CAT   L $$aZ4BBCMER$$b20$$c20100106$$lMAI60$$h1823
000280327 CAT   L $$aZ4BBCMER$$b20$$c20100309$$lMAI60$$h1713
000280327 CAT   L $$aZ4BBCMER$$b20$$c20100811$$lMAI60$$h2036
000280327 CAT   L $$aZ5ABCLAW$$b20$$c20110311$$lMAI60$$h1557
000280327 CAT   L $$aZ4BBCMER$$b20$$c20110824$$lMAI60$$h1020
000280327 CAT   L $$aZ4BBCMER$$b20$$c20110824$$lMAI60$$h1020
000280327 CAT   L $$aZ5ABCLAW$$b20$$c20120803$$lMAI60$$h1650
000280327 CAT   L $$aZ5ABCSHUGH$$b20$$c20121212$$lMAI60$$h1851
000280327 CAT   L $$aZ5ABCLAW$$b20$$c20130220$$lMAI60$$h1029
000280327 CAT   L $$aZ5ABCLAW$$b20$$c20130220$$lMAI60$$h1030
000280327 CAT   L $$aZ5ABCLAW$$b20$$c20130220$$lMAI60$$h1031
000280327 CAT   L $$aZ5ABCLAW$$b20$$c20130312$$lMAI60$$h1213
000280327 CAT   L $$aZ5ABCLAW$$b20$$c20130409$$lMAI60$$h1601
000280327 CAT   L $$aZ4BBCLD$$b20$$c20130520$$lMAI60$$h1720
000280327 CAT   L $$aZ5ABCLAW$$b20$$c20130614$$lMAI60$$h1426
000280327 CAT   L $$aZ5ABCLAW$$b20$$c20130709$$lMAI60$$h1347
000280327 CAT   L $$aZ5ABCLAW$$b20$$c20130709$$lMAI60$$h1347
000280327 CAT   L $$aZ5ABCLAW$$b20$$c20130813$$lMAI60$$h1317
000280327 CAT   L $$aZ5ABCLAW$$b20$$c20130813$$lMAI60$$h1317
000280327 CAT   L $$aZ4BBCLD$$b20$$c20130909$$lMAI60$$h1604
000280327 CAT   L $$aZ4BBCTEST$$b20$$c20131007$$lMAI60$$h1714
000280327 CAT   L $$aZ5ABCLAW$$b20$$c20131112$$lMAI60$$h1451
000280327 CAT   L $$aZ5ABCLD$$b20$$c20131210$$lMAI60$$h1756
000280327 CAT   L $$aZ5ABCLAW$$b20$$c20140108$$lMAI60$$h1309
000280327 CAT   L $$aZ5ABCLD$$b20$$c20140304$$lMAI60$$h1735
000280327 CAT   L $$aZ5ABCLD$$b20$$c20140310$$lMAI60$$h1617
000280327 CAT   L $$aZ5ABCLAW$$b20$$c20140403$$lMAI60$$h1526
000280327 CAT   L $$aZ5ABCLAW$$b20$$c20140514$$lMAI60$$h1330
000280327 CAT   L $$aZ5ABCLD$$b20$$c20140616$$lMAI60$$h1734
000280327 CAT   L $$aZ5ABCLD$$b20$$c20140616$$lMAI60$$h1734
000280327 CAT   L $$aZ5ABCLD$$b20$$c20140616$$lMAI60$$h2158
000280327 CAT   L $$aZ5ABCLD$$b20$$c20140707$$lMAI60$$h1647
000280327 CAT   L $$aZ5ABCLAW$$b20$$c20140812$$lMAI60$$h1242
000280327 CAT   L $$aZ5ABCLAW$$b20$$c20140910$$lMAI60$$h1333
000280327 CAT   L $$aZ5ABCLD$$b20$$c20141006$$lMAI60$$h1631
000280327 CAT   L $$aZ5ABCLD$$b20$$c20141006$$lMAI60$$h1651
000280327 CAT   L $$aZ5ABCLD$$b20$$c20141110$$lMAI60$$h1645
000280327 CAT   L $$aZ5ABCLD$$b20$$c20141110$$lMAI60$$h1645
000280327 CAT   L $$aZ5ABCLAW$$b20$$c20150107$$lMAI60$$h1420
000280327 CAT   L $$aZ5ABCLAW$$b20$$c20150107$$lMAI60$$h1421
000280327 CAT   L $$aZ5ABCLD$$b20$$c20150209$$lMAI60$$h1607
000280327 CAT   L $$aZ5ABCLAW$$b20$$c20150312$$lMAI60$$h1400
000280327 CAT   L $$aZ5ABCLAW$$b20$$c20150312$$lMAI60$$h1400
000280327 CAT   L $$aZ5ABCLD$$b20$$c20150413$$lMAI60$$h1509
000280327 CAT   L $$aZ5ABCLD$$b20$$c20150413$$lMAI60$$h2241
000280327 CAT   L $$aZ5ABCLAW$$b20$$c20150513$$lMAI60$$h1456
000280327 CAT   L $$aZ5ABCLAW$$b20$$c20150611$$lMAI60$$h1408
000280327 CAT   L $$aZ5ABCLAW$$b20$$c20150611$$lMAI60$$h1410
000280327 CAT   L $$aZ5ABCLD$$b20$$c20150706$$lMAI60$$h1437
000280327 CAT   L $$aZ5ABCLD$$b20$$c20150706$$lMAI60$$h1438
000280327 CAT   L $$aZ5ABCLD$$b20$$c20150706$$lMAI60$$h2155
000280327 CAT   L $$aZ5ABCLAW$$b20$$c20150811$$lMAI60$$h1323
000280327 CAT   L $$aZ5ABCLAW$$b20$$c20150811$$lMAI60$$h1323
000280327 CAT   L $$aZ5ABCLD$$b20$$c20150914$$lMAI60$$h1510
000280327 CAT   L $$aZ5ABCLAW$$b20$$c20151013$$lMAI60$$h1534
000280327 CAT   L $$aZ5ABCLAW$$b20$$c20151013$$lMAI60$$h1536
000280327 CAT   L $$aZ5ABCLD$$b20$$c20151109$$lMAI60$$h1550
000280327 CAT   L $$aZ5ABCLAW$$b20$$c20151216$$lMAI60$$h1543
000280327 CAT   L $$aZ5ABCLAW$$b20$$c20160108$$lMAI60$$h1432
000280327 CAT   L $$aZ5ABCLAW$$b20$$c20160108$$lMAI60$$h1432
000280327 CAT   L $$aZ5ABCLAW$$b20$$c20160212$$lMAI60$$h1420
000280327 CAT   L $$aZ5ABCLAW$$b20$$c20160212$$lMAI60$$h1421
000280327 CAT   L $$aZ5ABCLD$$b20$$c20160317$$lMAI60$$h1641
000280327 CAT   L $$aZ5ABCLD$$b20$$c20160317$$lMAI60$$h1641
000280327 CAT   L $$aZ5ABCLD$$b20$$c20160411$$lMAI60$$h1523
000280327 CAT   L $$aZ5ABCLAW$$b20$$c20160510$$lMAI60$$h1353
000280327 CAT   L $$aZ5ABCLAW$$b20$$c20160510$$lMAI60$$h1354
000280327 CAT   L $$aZ5ABCLAW$$b20$$c20160614$$lMAI60$$h1509
000280327 CAT   L $$aZ5ABCLD$$b20$$c20160712$$lMAI60$$h1238
000280327 CAT   L $$aZ5ABCLAW$$b20$$c20160812$$lMAI60$$h1431
000280327 CAT   L $$aZ5ABCLAW$$b20$$c20160908$$lMAI60$$h1544
000280327 CAT   L $$aZ5ABCLAW$$b20$$c20161021$$lMAI60$$h1418
000280327 CAT   L $$aZ5ABCLAW$$b20$$c20161021$$lMAI60$$h1418
000280327 CAT   L $$aZ5ABCLD$$b20$$c20161114$$lMAI60$$h1745
000280327 CAT   L $$aZ5ABCLD$$b20$$c20161114$$lMAI60$$h1745
000280327 CAT   L $$aZ5ABCLAW$$b20$$c20161208$$lMAI60$$h1339
000280327 CAT   L $$aZ5ABCLAW$$b20$$c20161208$$lMAI60$$h1339
000280327 CAT   L $$aZ5ABCLAW$$b20$$c20170110$$lMAI60$$h1608
000280327 CAT   L $$aZ5ABCLAW$$b20$$c20170216$$lMAI60$$h1220
000280327 CAT   L $$aZ5ABCLAW$$b20$$c20170322$$lMAI60$$h1625
000280327 CAT   L $$aZ5ABCLAW$$b20$$c20170419$$lMAI60$$h1502
000280327 CAT   L $$aZ5ABCLD$$b20$$c20170508$$lMAI60$$h2016
000280327 CAT   L $$aZ5ABCLAW$$b20$$c20170613$$lMAI60$$h1934
000280327 CAT   L $$aZ5ABCLAW$$b20$$c20170706$$lMAI60$$h1109
000280327 CAT   L $$aZ5ABCLAW$$b20$$c20170803$$lMAI60$$h1429
000280327 CAT   L $$aZ5ABCLAW$$b20$$c20170803$$lMAI60$$h1429
000280327 CAT   L $$aZ5ABCLAW$$b20$$c20170829$$lMAI60$$h1500
000280327 CAT   L $$aZ5ABCLAW$$b20$$c20171005$$lMAI60$$h1443
000280327 CAT   L $$aZ5ABCLAW$$b20$$c20171005$$lMAI60$$h1443
000280327 CAT   L $$aZ5ABCLAW$$b20$$c20171114$$lMAI60$$h1424
000280327 CAT   L $$aZ5ABCLAW$$b20$$c20171219$$lMAI60$$h1124
000280327 CAT   L $$aZ5ABCLAW$$b20$$c20171219$$lMAI60$$h1125
000280327 CAT   L $$aZ5ABCLAW$$b20$$c20180110$$lMAI60$$h1739
000280327 CAT   L $$aZ5ABCLAW$$b20$$c20180227$$lMAI60$$h1538
000280327 CAT   L $$aZ5ABCLAW$$b20$$c20180227$$lMAI60$$h1538
000280327 CAT   L $$aZ5ABCLAW$$b20$$c20180306$$lMAI60$$h1532
000280327 CAT   L $$aZ5ABCLAW$$b20$$c20180306$$lMAI60$$h1533
000280327 CAT   L $$aZ5ABCLAW$$b20$$c20180411$$lMAI60$$h1512
000280327 CAT   L $$aZ5ABCLAW$$b20$$c20180508$$lMAI60$$h1416
000280327 CAT   L $$aZ5ABCLAW$$b20$$c20180508$$lMAI60$$h1416
000280327 CAT   L $$aZ5ABCLAW$$b20$$c20180628$$lMAI60$$h1648
000280327 CAT   L $$aZ5ABCLAW$$b20$$c20180710$$lMAI60$$h1432
000280327 CAT   L $$aZ5ABCLAW$$b20$$c20180815$$lMAI60$$h1337
000280327 CAT   L $$aZ5ABCLAW$$b20$$c20180815$$lMAI60$$h1337
000280327 CAT   L $$aZ5ABCLAW$$b20$$c20180913$$lMAI60$$h1612
000280327 CAT   L $$aZ5ABCLAW$$b20$$c20181031$$lMAI60$$h1527
000280327 CAT   L $$aZ5ABCLAW$$b20$$c20181129$$lMAI60$$h1527
000280327 CAT   L $$aZ5ABCLAW$$b20$$c20181211$$lMAI60$$h1659
000280327 CAT   L $$aZ5ABCLAW$$b20$$c20190109$$lMAI60$$h1331
000280327 CAT   L $$aZ5ABCLAW$$b20$$c20190206$$lMAI60$$h1301
000280327 CAT   L $$aZ5ABCLAW$$b20$$c20190401$$lMAI60$$h1658
000280327 CAT   L $$aZ5ABCLAW$$b20$$c20190409$$lMAI60$$h1513
000280327 CAT   L $$aZ5ABCLAW$$b20$$c20190509$$lMAI60$$h0856
000280327 CAT   L $$aZ5ABCLAW$$b20$$c20190509$$lMAI60$$h0856
000280327 CAT   L $$aZ5ABCLAW$$b20$$c20190612$$lMAI60$$h1023
000280327 CAT   L $$aZ5ABCLAW$$b20$$c20190709$$lMAI60$$h1936
000280327 CAT   L $$aZ5ABCLAW$$b20$$c20190827$$lMAI60$$h1337
000280327 CAT   L $$aZ5ABCLAW$$b20$$c20190830$$lMAI60$$h1443
000280327 CAT   L $$aZ5ABCLAW$$b20$$c20191008$$lMAI60$$h1649
000280327 CAT   L $$aZ5ABCLAW$$b20$$c20191008$$lMAI60$$h1721
000280327 CAT   L $$aZ5ABCLAW$$b20$$c20191108$$lMAI60$$h1040
000280327 CAT   L $$aZ5ABCLAW$$b20$$c20191211$$lMAI60$$h1655
000280327 CAT   L $$aZ4ABCEB$$b20$$c20200108$$lMAI60$$h1530
000280327 CAT   L $$aZ4ABCEB$$b20$$c20200219$$lMAI60$$h1219
000280327 CAT   L $$aZ5ABCLAW$$b20$$c20201009$$lMAI60$$h1321
000280327 CAT   L $$aZ5ABCLAW$$b20$$c20201009$$lMAI60$$h1322
000280327 CAT   L $$aZ5ABCLAW$$b20$$c20201104$$lMAI60$$h1243
000280327 CAT   L $$aZ5ABCLAW$$b20$$c20201111$$lMAI60$$h1249
000280327 CAT   L $$aZ4ABCEB$$b20$$c20201117$$lMAI60$$h1202
000280327 CAT   L $$aZ4ABCEB$$b20$$c20201124$$lMAI60$$h1340
000280327 CAT   L $$aZ4ABCEB$$b20$$c20201203$$lMAI60$$h1041
000280327 CAT   L $$aZ4ABCEB$$b20$$c20201208$$lMAI60$$h1246
000280327 CAT   L $$aZ5ABCLAW$$b20$$c20201211$$lMAI60$$h1319
000280327 CAT   L $$aZ5ABCLAW$$b20$$c20201211$$lMAI60$$h1319
000280327 CAT   L $$aZ5ABCLAW$$b20$$c20210122$$lMAI60$$h1142
000280327 003   L MdU-BC
000280327 004   L $$aBC0007495418
000280327 004   L $$aBC0007495418.01000
000280327 007   L ta
000280327 008   L ||||||4g^^^^8^^^1001uueng0010201
000280327 022   L $$a0277-092X
000280327 LKR   L $$aHOL$$lMAI01$$b001020047
000280327 852 0 L $$bBC-BC$$cSSTCK
000280327 853   L $$899$$av.$$bno.$$u12$$vr$$i(year)$$j(month)$$wm
000280327 86631 L $$av.32:no.3(1995:Nov.)-v.49(2012),v.50:no.4(2012:Dec.),v.50:no.6(2013:Feb.)-v.52:no.3(2014:Nov.),v.52:no.6(2015:Feb.)-v.58:no.4(2020:Dec.)$$xFREE, SHELVE IN SERIALS BACK STACKS
000333205 OWN   L $$aBCHOL
000333205 FMT   L HO
000333205 LDR   L 00000ny^^^22000003n^4500
000333205 CAT   L $$aCONV$$b20$$c20021125$$lMAI60$$h1401
000333205 CAT   L $$aZ6BCLAW$$b20$$c20030814$$lMAI60$$h1134
000333205 CAT   L $$aZ6BCLAW$$b20$$c20030814$$lMAI60$$h1136
000333205 CAT   L $$aZ5ABCLAW$$b20$$c20040108$$lMAI60$$h1231
000333205 CAT   L $$aZ5ABCLAW$$b20$$c20040108$$lMAI60$$h1231
000333205 CAT   L $$aZ6BCJET$$b20$$c20041221$$lMAI60$$h1001
000333205 CAT   L $$aZ5ABCLAW$$b20$$c20050921$$lMAI60$$h0940
000333205 CAT   L $$aZ5ABCLAW$$b20$$c20050921$$lMAI60$$h0941
000333205 CAT   L $$aZ5ABCLAW$$b20$$c20050921$$lMAI60$$h0941
000333205 CAT   L $$aD5BCPXU$$b20$$c20060106$$lMAI60$$h1025
000333205 CAT   L $$aZ5ABCLAW$$b20$$c20070727$$lMAI60$$h1450
000333205 CAT   L $$aZ5ABCLAW$$b20$$c20070727$$lMAI60$$h1451
000333205 CAT   L $$aZ5ABCLAW$$b20$$c20070727$$lMAI60$$h1451
000333205 CAT   L $$aZ5ABCLAW$$b20$$c20070727$$lMAI60$$h1451
000333205 CAT   L $$aZ5ABCLAW$$b20$$c20070801$$lMAI60$$h1418
000333205 CAT   L $$aZ5ABCLAW$$b20$$c20070801$$lMAI60$$h1418
000333205 CAT   L $$aZ4BBCMER$$b20$$c20080804$$lMAI60$$h1851
000333205 CAT   L $$aZ4BBCMER$$b20$$c20100128$$lMAI60$$h1428
000333205 CAT   L $$aZ4BBCMER$$b20$$c20100128$$lMAI60$$h1429
000333205 CAT   L $$aZ4BBCMER$$b20$$c20110112$$lMAI60$$h1121
000333205 CAT   L $$aZ5ABCLAW$$b20$$c20111216$$lMAI60$$h1114
000333205 CAT   L $$aZ5ABCLAW$$b20$$c20111216$$lMAI60$$h1114
000333205 CAT   L $$aZ5ABCLAW$$b20$$c20111216$$lMAI60$$h1115
000333205 CAT   L $$aZ4BBCMER$$b20$$c20120123$$lMAI60$$h1605
000333205 CAT   L $$aZ4BBCLD$$b20$$c20130702$$lMAI60$$h1617
000333205 CAT   L $$aZ5ABCLAW$$b20$$c20140117$$lMAI60$$h1101
000333205 CAT   L $$aZ5ABCLD$$b20$$c20150210$$lMAI60$$h1451
000333205 CAT   L $$aZ5ABCLAW$$b20$$c20160112$$lMAI60$$h1627
000333205 CAT   L $$aZ5ABCLAW$$b20$$c20170921$$lMAI60$$h1328
000333205 CAT   L $$aZ5ABCLAW$$b20$$c20190124$$lMAI60$$h1335
000333205 CAT   L $$aZ5ABCLAW$$b20$$c20190124$$lMAI60$$h1337
000333205 CAT   L $$aZ5ABCLAW$$b20$$c20200218$$lMAI60$$h1712
000333205 CAT   L $$aZ5ABCLAW$$b20$$c20200218$$lMAI60$$h1712
000333205 CAT   L $$aZ4ABCEB$$b20$$c20201110$$lMAI60$$h1000
000333205 CAT   L $$aZ4ABCEB$$b20$$c20201110$$lMAI60$$h1000
000333205 CAT   L $$aZ5ABCLAW$$b20$$c20210122$$lMAI60$$h1333
000333205 CAT   L $$aZ5ABCLAW$$b20$$c20210122$$lMAI60$$h1334
000333205 CAT   L $$aZ5ABCLAW$$b20$$c20210122$$lMAI60$$h1335
000333205 CAT   L $$aZ5ABCLAW$$b20$$c20210122$$lMAI60$$h1335
000333205 CAT   L $$aZ5ABCLAW$$b20$$c20210122$$lMAI60$$h1335
000333205 003   L MdU-BC
000333205 004   L $$aBC0011313029
000333205 004   L $$aBC0011313029.01000
000333205 005   L 20021114
000333205 007   L ta
000333205 008   L ||||||4p^^^^8^^^1001uueng0021114
000333205 022   L $$a8755-4550
000333205 LKR   L $$aHOL$$lMAI01$$b001268759
000333205 852 0 L $$bBC-BC$$cSSTCK
000333205 853   L $$899$$av.$$bno.$$u2$$vr$$i(year)$$j(season)$$wf$$yps21,23
000333205 853X  L $$899$$901000$$a45$$b1$$i2022$$j21$$320220601
000333205 86631 L $$av.10:no.1(1986:winter)-$$xHoldings updated 12/16/11 LW
000343509 OWN   L $$aBCHOL
000343509 FMT   L HO
000343509 LDR   L 00000ny^^^22000003n^4500
000343509 CAT   L $$aCONV$$b20$$c20021125$$lMAI60$$h1402
000343509 CAT   L $$aZ5ABCLAW$$b20$$c20061026$$lMAI60$$h1029
000343509 CAT   L $$aZ5ABCLAW$$b20$$c20070918$$lMAI60$$h1543
000343509 CAT   L $$aZ5ABCLAW$$b20$$c20070918$$lMAI60$$h1544
000343509 CAT   L $$aZ5ABCLAW$$b20$$c20070918$$lMAI60$$h1546
000343509 CAT   L $$aZ4BBCMER$$b20$$c20080205$$lMAI60$$h1409
000343509 CAT   L $$aZ4BBCMER$$b20$$c20080205$$lMAI60$$h1409
000343509 CAT   L $$aZ4BBCMER$$b20$$c20080205$$lMAI60$$h1421
000343509 CAT   L $$aZ4BBCMER$$b20$$c20080205$$lMAI60$$h1421
000343509 CAT   L $$aZ4BBCMER$$b20$$c20080205$$lMAI60$$h1422
000343509 CAT   L $$aZ4BBCMER$$b20$$c20080507$$lMAI60$$h1936
000343509 CAT   L $$aZ4BBCMER$$b20$$c20090312$$lMAI60$$h1254
000343509 CAT   L $$aZ4BBCMER$$b20$$c20090312$$lMAI60$$h1326
000343509 CAT   L $$aZ4BBCMER$$b20$$c20090312$$lMAI60$$h1328
000343509 CAT   L $$aZ4BBCMER$$b20$$c20090312$$lMAI60$$h1328
000343509 CAT   L $$aZ4BBCMER$$b20$$c20090312$$lMAI60$$h1328
000343509 CAT   L $$aZ4BBCMER$$b20$$c20091130$$lMAI60$$h1837
000343509 CAT   L $$aZ4BBCMER$$b20$$c20091221$$lMAI60$$h1921
000343509 CAT   L $$aZ4BBCMER$$b20$$c20100324$$lMAI60$$h1945
000343509 CAT   L $$aZ4BBCMER$$b20$$c20110222$$lMAI60$$h1310
000343509 CAT   L $$aZ4BBCMER$$b20$$c20110222$$lMAI60$$h1311
000343509 CAT   L $$aZ4BBCMER$$b20$$c20110222$$lMAI60$$h1312
000343509 CAT   L $$aZ4BBCMER$$b20$$c20110317$$lMAI60$$h1450
000343509 CAT   L $$aZ5ABCLAW$$b20$$c20111215$$lMAI60$$h1333
000343509 CAT   L $$aZ5ABCLAW$$b20$$c20111215$$lMAI60$$h1333
000343509 CAT   L $$aZ5ABCLAW$$b20$$c20111215$$lMAI60$$h1334
000343509 CAT   L $$aZ4BBCMER$$b20$$c20120207$$lMAI60$$h1933
000343509 CAT   L $$aZ5ABCLAW$$b20$$c20130103$$lMAI60$$h1424
000343509 CAT   L $$aD4BCLAW$$b20$$c20131003$$lMAI60$$h1355
000343509 CAT   L $$aZ5ABCLD$$b20$$c20140107$$lMAI60$$h1437
000343509 CAT   L $$aZ5ABCLAW$$b20$$c20141223$$lMAI60$$h1504
000343509 CAT   L $$aZ5ABCLAW$$b20$$c20150515$$lMAI60$$h1459
000343509 CAT   L $$aZ5ABCLAW$$b20$$c20160108$$lMAI60$$h1501
000343509 CAT   L $$aZ5ABCLAW$$b20$$c20170315$$lMAI60$$h1425
000343509 CAT   L $$aZ5ABCLAW$$b20$$c20180216$$lMAI60$$h1536
000343509 CAT   L $$aZ5ABCLAW$$b20$$c20180216$$lMAI60$$h1536
000343509 CAT   L $$aZ5ABCLAW$$b20$$c20181113$$lMAI60$$h1647
000343509 CAT   L $$aZ5ABCLAW$$b20$$c20191126$$lMAI60$$h1726
000343509 CAT   L $$aZ5ABCLAW$$b20$$c20210122$$lMAI60$$h1256
000343509 003   L MdU-BC
000343509 004   L $$aBC0012168932
000343509 004   L $$aBC0012168932.01000
000343509 005   L 20020916
000343509 007   L ta
000343509 008   L ||||||4p^^^^8^^^1001uuspa0020916
000343509 022   L $$a0185-1330
000343509 LKR   L $$aHOL$$lMAI01$$b001324731
000343509 852 0 L $$bBC-BC$$cSSTCK
000343509 853   L $$899$$ano.$$u12$$vc$$i(year)$$j(month)$$wm
000343509 853X  L $$899$$901000$$a879$$i2021$$j12$$320211201
000343509 86631 L $$ano.600/601(2001:enero)-no.615(2002:sept.),no.617(2002:nov.)-no.620(2003:feb.),no.622(2003:abr.),no.630(2003:dic.)-no.631(2004:enero)$$xHoldings updated 12/15/11 LW$$znew ser. no.1(2004:marzo),no.11-22(2005:enero-dic.),no.35-45(2007:enero-nov.),no.47(2008:enero)-no.68(2009:oct.),no.70(2009:dic.)-no.73(2010:marzo),no:75-79(2010:mayo-sept.),no.81(2010:nov.)-
000380198 OWN   L $$aBCHOL
000380198 FMT   L HO
000380198 LDR   L 00000ny^^^22000003n^4500
000380198 CAT   L $$aCONV$$b20$$c20021125$$lMAI60$$h1404
000380198 CAT   L $$aZ4BBCMER$$b20$$c20040511$$lMAI60$$h1901
000380198 CAT   L $$aZ4BBCMER$$b20$$c20040511$$lMAI60$$h1901
000380198 CAT   L $$aZ4BBCMER$$b20$$c20040511$$lMAI60$$h1901
000380198 CAT   L $$aZ6BCJET$$b20$$c20040907$$lMAI60$$h1630
000380198 CAT   L $$aZ5ABCLAW$$b20$$c20050317$$lMAI60$$h1743
000380198 CAT   L $$aZ5ABCLAW$$b20$$c20050317$$lMAI60$$h1743
000380198 CAT   L $$aZ5ABCLAW$$b20$$c20060510$$lMAI60$$h1543
000380198 CAT   L $$aZ5ABCLAW$$b20$$c20060510$$lMAI60$$h1543
000380198 CAT   L $$aZ5ABCLAW$$b20$$c20070417$$lMAI60$$h1736
000380198 CAT   L $$aZ5ABCLAW$$b20$$c20070417$$lMAI60$$h1736
000380198 CAT   L $$aZ4BBCMER$$b20$$c20080129$$lMAI60$$h1824
000380198 CAT   L $$aZ4BBCMER$$b20$$c20080505$$lMAI60$$h2146
000380198 CAT   L $$aZ4BBCMER$$b20$$c20100126$$lMAI60$$h2109
000380198 CAT   L $$aZ4BBCMER$$b20$$c20100126$$lMAI60$$h2109
000380198 CAT   L $$aZ4BBCMER$$b20$$c20110502$$lMAI60$$h1833
000380198 CAT   L $$aZ4BBCMER$$b20$$c20110502$$lMAI60$$h2226
000380198 CAT   L $$aZ5ABCLAW$$b20$$c20130507$$lMAI60$$h1500
000380198 CAT   L $$aZ5ABCLAW$$b20$$c20130507$$lMAI60$$h1500
000380198 CAT   L $$aZ5ABCLAW$$b20$$c20130801$$lMAI60$$h1618
000380198 CAT   L $$aZ5ABCLD$$b20$$c20131212$$lMAI60$$h1703
000380198 CAT   L $$aZ5ABCLD$$b20$$c20131212$$lMAI60$$h1704
000380198 CAT   L $$aZ5ABCLAW$$b20$$c20140226$$lMAI60$$h1415
000380198 CAT   L $$aZ5ABCLAW$$b20$$c20140226$$lMAI60$$h1415
000380198 CAT   L $$aZ5ABCLAW$$b20$$c20140528$$lMAI60$$h1548
000380198 CAT   L $$aZ5ABCLD$$b20$$c20140825$$lMAI60$$h1557
000380198 CAT   L $$aZ5ABCLD$$b20$$c20140825$$lMAI60$$h1558
000380198 CAT   L $$aZ5ABCLD$$b20$$c20141209$$lMAI60$$h1549
000380198 CAT   L $$aZ5ABCLD$$b20$$c20150105$$lMAI60$$h2019
000380198 CAT   L $$aZ5ABCLD$$b20$$c20150105$$lMAI60$$h2021
000380198 CAT   L $$aZ5ABCLAW$$b20$$c20150401$$lMAI60$$h1553
000380198 CAT   L $$aZ5ABCLAW$$b20$$c20150401$$lMAI60$$h1553
000380198 CAT   L $$aZ5ABCLAW$$b20$$c20150520$$lMAI60$$h1407
000380198 CAT   L $$aZ5ABCLD$$b20$$c20150817$$lMAI60$$h1246
000380198 CAT   L $$aZ5ABCLAW$$b20$$c20151027$$lMAI60$$h1523
000380198 CAT   L $$aZ5ABCLAW$$b20$$c20160219$$lMAI60$$h1415
000380198 CAT   L $$aZ5ABCLAW$$b20$$c20160219$$lMAI60$$h1416
000380198 CAT   L $$aZ5ABCLD$$b20$$c20160502$$lMAI60$$h1634
000380198 CAT   L $$aZ5ABCLAW$$b20$$c20160809$$lMAI60$$h1733
000380198 CAT   L $$aZ5ABCLAW$$b20$$c20160809$$lMAI60$$h1734
000380198 CAT   L $$aZ5ABCLAW$$b20$$c20160809$$lMAI60$$h1734
000380198 CAT   L $$aZ5ABCLAW$$b20$$c20161129$$lMAI60$$h1353
000380198 CAT   L $$aZ5ABCLAW$$b20$$c20161129$$lMAI60$$h1353
000380198 CAT   L $$aZ5ABCLAW$$b20$$c20170524$$lMAI60$$h1559
000380198 CAT   L $$aZ5ABCLAW$$b20$$c20170524$$lMAI60$$h1600
000380198 CAT   L $$aZ5ABCLAW$$b20$$c20170927$$lMAI60$$h1133
000380198 CAT   L $$aZ5ABCLAW$$b20$$c20170927$$lMAI60$$h1133
000380198 CAT   L $$aZ5ABCLAW$$b20$$c20171219$$lMAI60$$h1158
000380198 CAT   L $$aZ5ABCLAW$$b20$$c20180131$$lMAI60$$h1711
000380198 CAT   L $$aZ5ABCLAW$$b20$$c20180530$$lMAI60$$h1546
000380198 CAT   L $$aZ5ABCLAW$$b20$$c20180530$$lMAI60$$h1546
000380198 CAT   L $$aZ5ABCLAW$$b20$$c20180828$$lMAI60$$h1623
000380198 CAT   L $$aZ5ABCLAW$$b20$$c20180828$$lMAI60$$h1624
000380198 CAT   L $$aZ5ABCLAW$$b20$$c20181219$$lMAI60$$h1638
000380198 CAT   L $$aZ5ABCLAW$$b20$$c20190219$$lMAI60$$h1433
000380198 CAT   L $$aZ5ABCLAW$$b20$$c20190516$$lMAI60$$h1536
000380198 CAT   L $$aZ5ABCLAW$$b20$$c20190827$$lMAI60$$h1252
000380198 CAT   L $$aZ5ABCLAW$$b20$$c20190827$$lMAI60$$h1252
000380198 CAT   L $$aZ5ABCLAW$$b20$$c20191113$$lMAI60$$h1653
000380198 CAT   L $$aZ5ABCLAW$$b20$$c20191113$$lMAI60$$h1653
000380198 CAT   L $$aZ5ABCLAW$$b20$$c20201104$$lMAI60$$h1301
000380198 CAT   L $$aZ5ABCLAW$$b20$$c20201209$$lMAI60$$h1141
000380198 CAT   L $$aZ5ABCLAW$$b20$$c20201209$$lMAI60$$h1142
000380198 CAT   L $$aZ5ABCLAW$$b20$$c20210108$$lMAI60$$h1147
000380198 CAT   L $$aZ5ABCLAW$$b20$$c20210122$$lMAI60$$h1156
000380198 003   L MdU-BC
000380198 004   L $$aBC0017220991
000380198 004   L $$aBC0017220991.01000
000380198 005   L 20021104
000380198 007   L ta
000380198 008   L ||||||4g^^^^8^^^1001uueng0021104
000380198 022   L $$a1016-0744
000380198 LKR   L $$aHOL$$lMAI01$$b001590032
000380198 852 0 L $$bBC-BC$$cSSTCK
000380198 86631 L $$av.1:no.1-2(1987),v.2(1988)-v.4(1989),v.5:no.1-3(1991),v.6(1992)-v.20(2006),v.21:no.1,3-4(2007),v.22(2008)-v.23(2009),v.24:no.1-3(2010),v.25(2011)-v.30:no.3(2016:fall),v.31:no.1(2017:spring)-v.34:no.3(2020:autumn)$$xHoldings updated 4/1/15 LW
000408834 OWN   L $$aBCHOL
000408834 FMT   L HO
000408834 LDR   L 00000ny^^^22000003n^4500
000408834 CAT   L $$aCONV$$b20$$c20021125$$lMAI60$$h1405
000408834 CAT   L $$aZ6BCLAW$$b20$$c20030312$$lMAI60$$h1754
000408834 CAT   L $$aZ6BCLAW$$b20$$c20030312$$lMAI60$$h1754
000408834 CAT   L $$aZ4BBCMER$$b20$$c20031125$$lMAI60$$h1858
000408834 CAT   L $$aZ4BBCMER$$b20$$c20041110$$lMAI60$$h1712
000408834 CAT   L $$aZ5ABCLAW$$b20$$c20060329$$lMAI60$$h1439
000408834 CAT   L $$aZ5ABCLAW$$b20$$c20060329$$lMAI60$$h1439
000408834 CAT   L $$aZ5ABCLAW$$b20$$c20070413$$lMAI60$$h1515
000408834 CAT   L $$aZ5ABCLAW$$b20$$c20070413$$lMAI60$$h1515
000408834 CAT   L $$aZ4BBCMER$$b20$$c20080205$$lMAI60$$h1800
000408834 CAT   L $$aZ4BBCMER$$b20$$c20080603$$lMAI60$$h2057
000408834 CAT   L $$aZ4BBCMER$$b20$$c20091202$$lMAI60$$h1636
000408834 CAT   L $$aZ4BBCMER$$b20$$c20100304$$lMAI60$$h1914
000408834 CAT   L $$aZ5ABCLAW$$b20$$c20100915$$lMAI60$$h1640
000408834 CAT   L $$aZ5ABCLAW$$b20$$c20110105$$lMAI60$$h1316
000408834 CAT   L $$aZ5ABCLAW$$b20$$c20110105$$lMAI60$$h1420
000408834 CAT   L $$aZ5ABCLAW$$b20$$c20110105$$lMAI60$$h1421
000408834 CAT   L $$aZ4BBCMER$$b20$$c20110106$$lMAI60$$h1434
000408834 CAT   L $$aZ6BCKSS$$b20$$c20120604$$lMAI60$$h0959
000408834 CAT   L $$aZ5ABCLAW$$b20$$c20130123$$lMAI60$$h1243
000408834 CAT   L $$aZ5ABCLAW$$b20$$c20130220$$lMAI60$$h1513
000408834 CAT   L $$aZ5ABCLAW$$b20$$c20130220$$lMAI60$$h1513
000408834 CAT   L $$aZ5ABCLAW$$b20$$c20131217$$lMAI60$$h1243
000408834 CAT   L $$aZ5ABCLAW$$b20$$c20140515$$lMAI60$$h1422
000408834 CAT   L $$aZ5ABCLAW$$b20$$c20140515$$lMAI60$$h1423
000408834 CAT   L $$aZ5ABCLD$$b20$$c20150106$$lMAI60$$h1415
000408834 CAT   L $$aZ5ABCLAW$$b20$$c20151216$$lMAI60$$h1555
000408834 CAT   L $$aZ5ABCLAW$$b20$$c20160314$$lMAI60$$h1316
000408834 CAT   L $$aZ5ABCLAW$$b20$$c20161208$$lMAI60$$h1706
000408834 CAT   L $$aZ5ABCLAW$$b20$$c20171219$$lMAI60$$h1248
000408834 CAT   L $$aZ5ABCLAW$$b20$$c20190108$$lMAI60$$h1339
000408834 CAT   L $$aZ5ABCLAW$$b20$$c20191212$$lMAI60$$h1325
000408834 CAT   L $$aZ5ABCLAW$$b20$$c20210122$$lMAI60$$h1243
000408834 003   L MdU-BC
000408834 004   L $$aBC0020761085
000408834 004   L $$aBC0020761085.01000
000408834 005   L 20021120
000408834 007   L ta
000408834 008   L ||||||4p^^^^8^^^1001uueng0021120
000408834 022   L $$a1049-023X
000408834 LKR   L $$aHOL$$lMAI01$$b001753403
000408834 852 0 L $$bBC-BC$$cSSTCK
000408834 853   L $$899$$av.$$bno.$$u6$$vr$$i(year)$$j(month)$$wb
000408834 853X  L $$899$$901000$$a37$$b1$$i2022$$j02$$320220101
000408834 86631 L $$av.8(1993)-v.15(2000),v.16:no.1-2,4(2001:Jan./Mar.-Apr./June,Oct./Dec.),v.17(2002)-v.24(2009),v.25:no.1,3-6(2010:Jan./Feb.,May/June-Nov./Dec.),v.26(2011)-$$xHoldings updated 3/14/16 LW
000608191 OWN   L $$aBCHOL
000608191 FMT   L HO
000608191 LDR   L 00000nx^^^22000003n^4500
000608191 CAT   L $$aCONV$$b20$$c20021125$$lMAI60$$h1416
000608191 CAT   L $$aZ5ABCLAW$$b20$$c20040908$$lMAI60$$h1754
000608191 CAT   L $$aZ5ABCLAW$$b20$$c20040908$$lMAI60$$h1757
000608191 CAT   L $$aZ5ABCLAW$$b20$$c20040908$$lMAI60$$h1806
000608191 CAT   L $$aZ6BCJET$$b20$$c20051116$$lMAI60$$h0950
000608191 CAT   L $$aZ6BCJET$$b20$$c20051116$$lMAI60$$h0950
000608191 CAT   L $$aZ6BCJET$$b20$$c20051116$$lMAI60$$h0950
000608191 CAT   L $$aZ5ABCLAW$$b20$$c20060503$$lMAI60$$h1500
000608191 CAT   L $$aZ5ABCLAW$$b20$$c20060503$$lMAI60$$h1500
000608191 CAT   L $$aZ5ABCLAW$$b20$$c20080214$$lMAI60$$h1436
000608191 CAT   L $$aZ5ABCLAW$$b20$$c20080530$$lMAI60$$h1226
000608191 CAT   L $$aZ4BBCMER$$b20$$c20090106$$lMAI60$$h1848
000608191 CAT   L $$aZ4BBCMER$$b20$$c20100104$$lMAI60$$h1321
000608191 CAT   L $$aZ4BBCMER$$b20$$c20100104$$lMAI60$$h1321
000608191 CAT   L $$aZ6BCJET$$b20$$c20100617$$lMAI60$$h1510
000608191 CAT   L $$aZ5ABCLAW$$b20$$c20100806$$lMAI60$$h1213
000608191 CAT   L $$aZ5ABCLAW$$b20$$c20100806$$lMAI60$$h1216
000608191 CAT   L $$aZ4BBCMER$$b20$$c20110216$$lMAI60$$h1754
000608191 CAT   L $$aZ4BBCMER$$b20$$c20110221$$lMAI60$$h1539
000608191 CAT   L $$aZ4BBCMER$$b20$$c20110221$$lMAI60$$h1544
000608191 CAT   L $$aZ4BBCMER$$b20$$c20110221$$lMAI60$$h1545
000608191 CAT   L $$aZ4BBCMER$$b20$$c20110221$$lMAI60$$h1545
000608191 CAT   L $$aZ4BBCMER$$b20$$c20110221$$lMAI60$$h1545
000608191 CAT   L $$aZ4BBCMER$$b20$$c20120110$$lMAI60$$h1320
000608191 CAT   L $$aZ4BBCMER$$b20$$c20120110$$lMAI60$$h1320
000608191 CAT   L $$aZ5ABCLAW$$b20$$c20130417$$lMAI60$$h1227
000608191 CAT   L $$aZ5ABCLAW$$b20$$c20131017$$lMAI60$$h1710
000608191 CAT   L $$aZ5ABCLD$$b20$$c20140106$$lMAI60$$h1428
000608191 CAT   L $$aZ5ABCLAW$$b20$$c20141222$$lMAI60$$h1559
000608191 CAT   L $$aZ5ABCLD$$b20$$c20160104$$lMAI60$$h1321
000608191 CAT   L $$aZ5ABCLAW$$b20$$c20160303$$lMAI60$$h1546
000608191 CAT   L $$aZ5ABCLAW$$b20$$c20170124$$lMAI60$$h1506
000608191 CAT   L $$aZ5ABCLAW$$b20$$c20180110$$lMAI60$$h1701
000608191 CAT   L $$aZ5ABCLAW$$b20$$c20190104$$lMAI60$$h1622
000608191 CAT   L $$aZ4ABCEB$$b20$$c20200102$$lMAI60$$h1535
000608191 CAT   L $$aZ5ABCLAW$$b20$$c20210122$$lMAI60$$h1120
000608191 003   L MdU-BC
000608191 004   L $$aBC4026583243
000608191 004   L $$aBC4026583243.01000
000608191 005   L 20021120
000608191 007   L ta
000608191 008   L ||||||4p^^^^8^^^1001uueng0021120
000608191 022   L $$a0968-0551
000608191 LKR   L $$aHOL$$lMAI01$$b002767987
000608191 852 0 L $$bBC-BC$$cSSTCK
000608191 853   L $$899$$ano.$$u2$$vc$$i(year)$$j(season)$$wf$$yps22,24
000608191 853X  L $$899$$901000$$a59$$i2022$$j22$$320220601
000608191 86631 L $$ano.21(2003)-$$xHoldings updated 3/3/16 LW
001604897 OWN   L $$aBSHOL
001604897 FMT   L HO
001604897 LDR   L 00000ny^^^22000003n^4500
001604897 CAT   L $$aCONV$$b20$$c20021125$$lMAI60$$h1524
001604897 CAT   L $$aZ6BSMCG$$b20$$c20030221$$lMAI60$$h1307
001604897 CAT   L $$aZ6BSMCG$$b20$$c20030221$$lMAI60$$h1308
001604897 CAT   L $$aZ6BSMCG$$b20$$c20030221$$lMAI60$$h1308
001604897 CAT   L $$aZ6BSMCG$$b20$$c20030701$$lMAI60$$h1230
001604897 CAT   L $$aZ6BSMCG$$b20$$c20040112$$lMAI60$$h1558
001604897 CAT   L $$aZ6BSMCG$$b20$$c20040112$$lMAI60$$h1559
001604897 CAT   L $$aZ6BSMCG$$b20$$c20040414$$lMAI60$$h1751
001604897 CAT   L $$aZ6BSMCG$$b20$$c20050204$$lMAI60$$h1247
001604897 CAT   L $$aZ6BSMCG$$b20$$c20050204$$lMAI60$$h1247
001604897 CAT   L $$aZ6BSMCG$$b20$$c20050505$$lMAI60$$h1644
001604897 CAT   L $$aZ6BSMCG$$b20$$c20060302$$lMAI60$$h1255
001604897 CAT   L $$aZ6BSMCG$$b20$$c20061030$$lMAI60$$h1055
001604897 CAT   L $$aZ6BSMCG$$b20$$c20070103$$lMAI60$$h1649
001604897 CAT   L $$aZ6BSMCG$$b20$$c20070302$$lMAI60$$h1101
001604897 CAT   L $$aZ6BSMCG$$b20$$c20071024$$lMAI60$$h2200
001604897 CAT   L $$aZ6BSMCG$$b20$$c20080110$$lMAI60$$h1507
001604897 CAT   L $$aZ6BSMCG$$b20$$c20080110$$lMAI60$$h1508
001604897 CAT   L $$aZ6BSMCG$$b20$$c20080312$$lMAI60$$h1808
001604897 CAT   L $$aZ6BSMCG$$b20$$c20090112$$lMAI60$$h1619
001604897 CAT   L $$aZ6BSMCG$$b20$$c20090112$$lMAI60$$h1619
001604897 CAT   L $$aZ6BSMCG$$b20$$c20090211$$lMAI60$$h1930
001604897 CAT   L $$aZ6BSMCG$$b20$$c20090223$$lMAI60$$h1032
001604897 CAT   L $$aZ6BSMCG$$b20$$c20100201$$lMAI60$$h1005
001604897 CAT   L $$aZ6BSMCG$$b20$$c20100415$$lMAI60$$h1221
001604897 CAT   L $$aZ6BSMCG$$b20$$c20110112$$lMAI60$$h1703
001604897 CAT   L $$aZ6BSMCG$$b20$$c20110112$$lMAI60$$h1703
001604897 CAT   L $$aZ6BSMCG$$b20$$c20110310$$lMAI60$$h1717
001604897 CAT   L $$aZ6BSMCG$$b20$$c20120110$$lMAI60$$h1109
001604897 CAT   L $$aZ6BSMCG$$b20$$c20120329$$lMAI60$$h1449
001604897 CAT   L $$aZ6BSMCG$$b20$$c20120829$$lMAI60$$h1003
001604897 CAT   L $$aZ5BSER$$b20$$c20140108$$lMAI60$$h1816
001604897 CAT   L $$aZ6BSMCG$$b20$$c20150113$$lMAI60$$h0956
001604897 CAT   L $$aZ6BSMCG$$b20$$c20151026$$lMAI60$$h0803
001604897 CAT   L $$aZ6BSMCG$$b20$$c20151026$$lMAI60$$h0803
001604897 CAT   L $$aZ6BSMCG$$b20$$c20161028$$lMAI60$$h0847
001604897 CAT   L $$aZ6BSMCG$$b20$$c20170306$$lMAI60$$h0959
001604897 CAT   L $$aZ6BSMCG$$b20$$c20171106$$lMAI60$$h1723
001604897 CAT   L $$aZ6BSMCG$$b20$$c20171115$$lMAI60$$h1546
001604897 CAT   L $$aZ6BSMCG$$b20$$c20181105$$lMAI60$$h1048
001604897 CAT   L $$aZ6BSMCG$$b20$$c20191029$$lMAI60$$h1546
001604897 CAT   L $$aZ6BSMCG$$b20$$c20210122$$lMAI60$$h1450
001604897 CAT   L $$aZ6BSMCG$$b20$$c20210122$$lMAI60$$h1451
001604897 CAT   L $$aZ6BSMCG$$b20$$c20210122$$lMAI60$$h1451
001604897 003   L MdBo
001604897 004   L $$aBS0001081160
001604897 004   L $$aBS0001081160.06000
001604897 005   L 20020116
001604897 008   L ||||||4p^^^^8^^^1001uueng0020116
001604897 022   L $$a0033-3107
001604897 LKR   L $$aHOL$$lMAI01$$b000374456
001604897 852   L $$bBS-BS$$cPERIO$$t000001
001604897 853   L $$899$$av.$$bno.$$u6$$vr$$i(year)$$j(month)$$wb
001604897 853X  L $$899$$906000$$a55$$b1$$i2022$$j01/02$$320220101
001604897 86630 L $$av.1-2(MAY 1967-MAY 1969),v.4-53(JUN.1970-DEC.2020), v.54- (JAN.2021- )
001608582 OWN   L $$aBSHOL
001608582 FMT   L HO
001608582 LDR   L 00000ny^^^22000003n^4500
001608582 CAT   L $$aCONV$$b20$$c20021125$$lMAI60$$h1524
001608582 CAT   L $$aZ5BSAH$$b20$$c20030414$$lMAI60$$h2017
001608582 CAT   L $$aZ6BSMCG$$b20$$c20030417$$lMAI60$$h1108
001608582 CAT   L $$aZ6BSMCG$$b20$$c20030417$$lMAI60$$h1112
001608582 CAT   L $$aZ6BSMCG$$b20$$c20030417$$lMAI60$$h1112
001608582 CAT   L $$aZ6BSMCG$$b20$$c20040109$$lMAI60$$h1243
001608582 CAT   L $$aZ6BSMCG$$b20$$c20040109$$lMAI60$$h1243
001608582 CAT   L $$aZ6BSMCG$$b20$$c20040420$$lMAI60$$h1608
001608582 CAT   L $$aZ6BSMCG$$b20$$c20050127$$lMAI60$$h1842
001608582 CAT   L $$aZ6BSMCG$$b20$$c20050127$$lMAI60$$h1843
001608582 CAT   L $$aZ6BSMCG$$b20$$c20050428$$lMAI60$$h1832
001608582 CAT   L $$aZ6BSMCG$$b20$$c20060111$$lMAI60$$h1446
001608582 CAT   L $$aZ6BSMCG$$b20$$c20060111$$lMAI60$$h1446
001608582 CAT   L $$aZ6BSMCG$$b20$$c20060920$$lMAI60$$h2239
001608582 CAT   L $$aZ6BSMCG$$b20$$c20060920$$lMAI60$$h2242
001608582 CAT   L $$aZ6BSMCG$$b20$$c20061129$$lMAI60$$h1803
001608582 CAT   L $$aZ6BSMCG$$b20$$c20061129$$lMAI60$$h1803
001608582 CAT   L $$aZ6BSMCG$$b20$$c20070227$$lMAI60$$h1645
001608582 CAT   L $$aZ6BSMCG$$b20$$c20080102$$lMAI60$$h1229
001608582 CAT   L $$aZ6BSMCG$$b20$$c20080102$$lMAI60$$h1229
001608582 CAT   L $$aZ6BSMCG$$b20$$c20080319$$lMAI60$$h1335
001608582 CAT   L $$aZ6BSMCG$$b20$$c20081202$$lMAI60$$h1524
001608582 CAT   L $$aZ6BSMCG$$b20$$c20081202$$lMAI60$$h1524
001608582 CAT   L $$aZ6BSMCG$$b20$$c20090210$$lMAI60$$h1110
001608582 CAT   L $$aZ6BSMCG$$b20$$c20100105$$lMAI60$$h1219
001608582 CAT   L $$aZ6BSMCG$$b20$$c20100105$$lMAI60$$h1219
001608582 CAT   L $$aZ6BSMCG$$b20$$c20101122$$lMAI60$$h1311
001608582 CAT   L $$aZ6BSMCG$$b20$$c20110304$$lMAI60$$h1501
001608582 CAT   L $$aZ6BSMCG$$b20$$c20120130$$lMAI60$$h1241
001608582 CAT   L $$aZ6BSMCG$$b20$$c20120322$$lMAI60$$h1111
001608582 CAT   L $$aZ6BSMCG$$b20$$c20130131$$lMAI60$$h1319
001608582 CAT   L $$aZ6BSMCG$$b20$$c20130605$$lMAI60$$h0821
001608582 CAT   L $$aZ6BSMCG$$b20$$c20140210$$lMAI60$$h1341
001608582 CAT   L $$aZ6BSMCG$$b20$$c20140728$$lMAI60$$h1220
001608582 CAT   L $$aZ6BSMCG$$b20$$c20150206$$lMAI60$$h1054
001608582 CAT   L $$aZ6BSMCG$$b20$$c20150206$$lMAI60$$h1110
001608582 CAT   L $$aZ6BSMCG$$b20$$c20160105$$lMAI60$$h1658
001608582 CAT   L $$aZ6BSMCG$$b20$$c20160627$$lMAI60$$h0920
001608582 CAT   L $$aZ6BSMCG$$b20$$c20170105$$lMAI60$$h1546
001608582 CAT   L $$aZ6BSMCG$$b20$$c20170222$$lMAI60$$h1454
001608582 CAT   L $$aZ6BSMCG$$b20$$c20170327$$lMAI60$$h0935
001608582 CAT   L $$aZ6BSMCG$$b20$$c20170327$$lMAI60$$h0936
001608582 CAT   L $$aZ6BSMCG$$b20$$c20170327$$lMAI60$$h0936
001608582 CAT   L $$aZ6BSMCG$$b20$$c20170327$$lMAI60$$h0937
001608582 CAT   L $$aZ6BSMCG$$b20$$c20171103$$lMAI60$$h1055
001608582 CAT   L $$aZ6BSMCG$$b20$$c20180227$$lMAI60$$h1516
001608582 CAT   L $$aZ6BSMCG$$b20$$c20181001$$lMAI60$$h0941
001608582 CAT   L $$aZ6BSMCG$$b20$$c20181001$$lMAI60$$h0942
001608582 CAT   L $$aZ6BSMCG$$b20$$c20200102$$lMAI60$$h1251
001608582 CAT   L $$aZ6BSMCG$$b20$$c20201208$$lMAI60$$h1040
001608582 CAT   L $$aZ6BSMCG$$b20$$c20210122$$lMAI60$$h1312
001608582 003   L MdBo
001608582 004   L $$aBS0001587777
001608582 004   L $$aBS0001587777.06000
001608582 005   L 20020304
001608582 008   L ||||||4p^^^^8^^^1001uueng0020304
001608582 022   L $$a0029-6465
001608582 LKR   L $$aHOL$$lMAI01$$b000483100
001608582 852   L $$bBS-BS$$cPERBJ$$t000001
001608582 853   L $$899$$av.$$bno.$$u4$$vr$$i(year)$$j(month)$$wq
001608582 853X  L $$899$$906000$$a56$$b1$$i2021$$j03$$320210301
001608582 86630 L $$av.1-55(MAR.1966-DEC.2020)
001609403 OWN   L $$aBSHOL
001609403 FMT   L HO
001609403 LDR   L 00000ny^^^22000003n^4500
001609403 CAT   L $$aCONV$$b20$$c20021125$$lMAI60$$h1524
001609403 CAT   L $$aZ6BSMCG$$b20$$c20030228$$lMAI60$$h1135
001609403 CAT   L $$aZ6BSMCG$$b20$$c20030228$$lMAI60$$h1148
001609403 CAT   L $$aZ6BSMCG$$b20$$c20030228$$lMAI60$$h1202
001609403 CAT   L $$aZ6BSMCG$$b20$$c20030305$$lMAI60$$h1513
001609403 CAT   L $$aZ6BSMCG$$b20$$c20030424$$lMAI60$$h1127
001609403 CAT   L $$aZ6BSMCG$$b20$$c20030424$$lMAI60$$h1128
001609403 CAT   L $$aZ6BSMCG$$b20$$c20030530$$lMAI60$$h1112
001609403 CAT   L $$aZ6BSMCG$$b20$$c20031118$$lMAI60$$h0922
001609403 CAT   L $$aZ6BSMCG$$b20$$c20040128$$lMAI60$$h1346
001609403 CAT   L $$aZ6BSMCG$$b20$$c20040128$$lMAI60$$h1346
001609403 CAT   L $$aZ6BSMCG$$b20$$c20040128$$lMAI60$$h1346
001609403 CAT   L $$aZ6BSMCG$$b20$$c20040809$$lMAI60$$h1107
001609403 CAT   L $$aZ5BSAH$$b20$$c20050128$$lMAI60$$h1235
001609403 CAT   L $$aZ5BSAH$$b20$$c20050128$$lMAI60$$h1237
001609403 CAT   L $$aZ5BSAH$$b20$$c20050208$$lMAI60$$h1608
001609403 CAT   L $$aZ6BSMCG$$b20$$c20060719$$lMAI60$$h1930
001609403 CAT   L $$aZ6BSMCG$$b20$$c20070109$$lMAI60$$h1507
001609403 CAT   L $$aZ6BSMCG$$b20$$c20070124$$lMAI60$$h0951
001609403 CAT   L $$aZ6BSMCG$$b20$$c20070323$$lMAI60$$h1414
001609403 CAT   L $$aZ6BSMCG$$b20$$c20071127$$lMAI60$$h1203
001609403 CAT   L $$aZ6BSMCG$$b20$$c20071127$$lMAI60$$h1638
001609403 CAT   L $$aZ6BSMCG$$b20$$c20080122$$lMAI60$$h1151
001609403 CAT   L $$aZ6BSMCG$$b20$$c20081212$$lMAI60$$h1149
001609403 CAT   L $$aZ6BSMCG$$b20$$c20081212$$lMAI60$$h1149
001609403 CAT   L $$aZ6BSMCG$$b20$$c20090108$$lMAI60$$h1617
001609403 CAT   L $$aZ6BSMCG$$b20$$c20091202$$lMAI60$$h1425
001609403 CAT   L $$aZ6BSMCG$$b20$$c20101105$$lMAI60$$h1113
001609403 CAT   L $$aZ6BSMCG$$b20$$c20110119$$lMAI60$$h1204
001609403 CAT   L $$aZ6BSMCG$$b20$$c20111102$$lMAI60$$h1917
001609403 CAT   L $$aZ6BSMCG$$b20$$c20120106$$lMAI60$$h1448
001609403 CAT   L $$aZ6BSMCG$$b20$$c20120106$$lMAI60$$h1448
001609403 CAT   L $$aZ5BSER$$b20$$c20130207$$lMAI60$$h1951
001609403 CAT   L $$aZ5BSER$$b20$$c20140107$$lMAI60$$h1752
001609403 CAT   L $$aZ6BSMCG$$b20$$c20141204$$lMAI60$$h1519
001609403 CAT   L $$aZ6BSMCG$$b20$$c20141204$$lMAI60$$h1519
001609403 CAT   L $$aZ6BSMCG$$b20$$c20151209$$lMAI60$$h0940
001609403 CAT   L $$aZ6BSMCG$$b20$$c20151209$$lMAI60$$h0941
001609403 CAT   L $$aZ6BSMCG$$b20$$c20160523$$lMAI60$$h1048
001609403 CAT   L $$aZ6BSMCG$$b20$$c20160624$$lMAI60$$h1023
001609403 CAT   L $$aZ6BSMCG$$b20$$c20161012$$lMAI60$$h1414
001609403 CAT   L $$aZ6BSMCG$$b20$$c20161212$$lMAI60$$h0950
001609403 CAT   L $$aZ6BSMCG$$b20$$c20180111$$lMAI60$$h0943
001609403 CAT   L $$aZ6BSMCG$$b20$$c20180206$$lMAI60$$h1000
001609403 CAT   L $$aZ6BSMCG$$b20$$c20181205$$lMAI60$$h1038
001609403 CAT   L $$aZ6BSMCG$$b20$$c20191111$$lMAI60$$h0855
001609403 CAT   L $$aZ6BSMCG$$b20$$c20201208$$lMAI60$$h0928
001609403 CAT   L $$aZ6BSMCG$$b20$$c20210122$$lMAI60$$h1332
001609403 CAT   L $$aZ6BSMCG$$b20$$c20210122$$lMAI60$$h1332
001609403 003   L MdBo
001609403 004   L $$aBS0001743347
001609403 004   L $$aBS0001743347.06000
001609403 005   L 20020125
001609403 008   L ||||||4p^^^^8^^^1001uuend0020125
001609403 022   L $$a0002-936X
001609403 LKR   L $$aHOL$$lMAI01$$b000508900
001609403 852   L $$bBS-BS$$cPERIO$$t000001
001609403 853   L $$899$$av.$$bno.$$u12$$vr$$i(year)$$j(month)$$wm
001609403 853X  L $$899$$906000$$a122$$b1$$i2022$$j01$$320220101
001609403 86630 L $$av.1-97(OCT.1900-MAY 1997), v.98-111(JAN.1999-DEC.2011), v.112-120(JAN.2012-DEC.2020)
001609545 OWN   L $$aBSHOL
001609545 FMT   L HO
001609545 LDR   L 00000ny^^^22000003n^4500
001609545 CAT   L $$aCONV$$b20$$c20021125$$lMAI60$$h1524
001609545 CAT   L $$aZ5BSAH$$b20$$c20030505$$lMAI60$$h1642
001609545 CAT   L $$aZ6BSMCG$$b20$$c20030530$$lMAI60$$h1510
001609545 CAT   L $$aZ6BSMCG$$b20$$c20030714$$lMAI60$$h1630
001609545 CAT   L $$aZ6BSMCG$$b20$$c20030910$$lMAI60$$h1846
001609545 CAT   L $$aZ6BSMCG$$b20$$c20030910$$lMAI60$$h1846
001609545 CAT   L $$aZ6BSMCG$$b20$$c20040112$$lMAI60$$h1149
001609545 CAT   L $$aZ6BSMCG$$b20$$c20040112$$lMAI60$$h1149
001609545 CAT   L $$aZ6BSMCG$$b20$$c20040210$$lMAI60$$h1203
001609545 CAT   L $$aZ6BSMCG$$b20$$c20040831$$lMAI60$$h1205
001609545 CAT   L $$aZ6BSMCG$$b20$$c20040831$$lMAI60$$h1205
001609545 CAT   L $$aZ6BSMCG$$b20$$c20050413$$lMAI60$$h2217
001609545 CAT   L $$aZ6BSMCG$$b20$$c20050413$$lMAI60$$h2217
001609545 CAT   L $$aZ5BSAH$$b20$$c20050803$$lMAI60$$h1009
001609545 CAT   L $$aZ5BSAH$$b20$$c20050803$$lMAI60$$h1009
001609545 CAT   L $$aZ5BSAH$$b20$$c20050803$$lMAI60$$h1010
001609545 CAT   L $$aZ6BSMCG$$b20$$c20050911$$lMAI60$$h2018
001609545 CAT   L $$aZ5BSAH$$b20$$c20060803$$lMAI60$$h0940
001609545 CAT   L $$aZ5BSAH$$b20$$c20060803$$lMAI60$$h0940
001609545 CAT   L $$aZ5BSAH$$b20$$c20060803$$lMAI60$$h0959
001609545 CAT   L $$aZ5BSAH$$b20$$c20060803$$lMAI60$$h1000
001609545 CAT   L $$aZ6BSMCG$$b20$$c20070207$$lMAI60$$h1502
001609545 CAT   L $$aZ6BSMCG$$b20$$c20070207$$lMAI60$$h1503
001609545 CAT   L $$aZ6BSMCG$$b20$$c20070601$$lMAI60$$h1310
001609545 CAT   L $$aZ6BSMCG$$b20$$c20070601$$lMAI60$$h1310
001609545 CAT   L $$aZ6BSMCG$$b20$$c20080522$$lMAI60$$h1154
001609545 CAT   L $$aZ6BSMCG$$b20$$c20080522$$lMAI60$$h1154
001609545 CAT   L $$aZ6BSMCG$$b20$$c20090209$$lMAI60$$h1233
001609545 CAT   L $$aZ6BSMCG$$b20$$c20090506$$lMAI60$$h1904
001609545 CAT   L $$aZ6BSMCG$$b20$$c20100428$$lMAI60$$h1457
001609545 CAT   L $$aZ6BSMCG$$b20$$c20100428$$lMAI60$$h1457
001609545 CAT   L $$aZ6BSMCG$$b20$$c20110303$$lMAI60$$h1708
001609545 CAT   L $$aZ6BSMCG$$b20$$c20110822$$lMAI60$$h0930
001609545 CAT   L $$aZ6BSMCG$$b20$$c20110822$$lMAI60$$h0930
001609545 CAT   L $$aZ6BSMCG$$b20$$c20120308$$lMAI60$$h1519
001609545 CAT   L $$aZ6BSMCG$$b20$$c20120907$$lMAI60$$h0924
001609545 CAT   L $$aZ6BSMCG$$b20$$c20130806$$lMAI60$$h1529
001609545 CAT   L $$aZ6BSMCG$$b20$$c20130806$$lMAI60$$h1529
001609545 CAT   L $$aZ6BSMCG$$b20$$c20140806$$lMAI60$$h1007
001609545 CAT   L $$aZ6BSMCG$$b20$$c20140806$$lMAI60$$h1007
001609545 CAT   L $$aZ6BSMCG$$b20$$c20150731$$lMAI60$$h0811
001609545 CAT   L $$aZ6BSMCG$$b20$$c20150731$$lMAI60$$h0811
001609545 CAT   L $$aZ6BSMCG$$b20$$c20160502$$lMAI60$$h0911
001609545 CAT   L $$aZ6BSMCG$$b20$$c20160502$$lMAI60$$h0911
001609545 CAT   L $$aZ6BSMCG$$b20$$c20170215$$lMAI60$$h0907
001609545 CAT   L $$aZ6BSMCG$$b20$$c20170308$$lMAI60$$h0913
001609545 CAT   L $$aZ6BSMCG$$b20$$c20170308$$lMAI60$$h0914
001609545 CAT   L $$aZ6BSMCG$$b20$$c20170308$$lMAI60$$h0915
001609545 CAT   L $$aZ6BSMCG$$b20$$c20170712$$lMAI60$$h1102
001609545 CAT   L $$aZ6BSMCG$$b20$$c20170906$$lMAI60$$h0932
001609545 CAT   L $$aZ6BSMCG$$b20$$c20170906$$lMAI60$$h0932
001609545 CAT   L $$aZ6BSMCG$$b20$$c20171012$$lMAI60$$h0910
001609545 CAT   L $$aZ6BSMCG$$b20$$c20171012$$lMAI60$$h0911
001609545 CAT   L $$aZ6BSMCG$$b20$$c20171012$$lMAI60$$h0911
001609545 CAT   L $$aZ6BSMCG$$b20$$c20171012$$lMAI60$$h0911
001609545 CAT   L $$aZ6BSMCG$$b20$$c20171017$$lMAI60$$h0923
001609545 CAT   L $$aZ6BSMCG$$b20$$c20180330$$lMAI60$$h1402
001609545 CAT   L $$aZ6BSMCG$$b20$$c20180606$$lMAI60$$h1122
001609545 CAT   L $$aZ6BSMCG$$b20$$c20180910$$lMAI60$$h1037
001609545 CAT   L $$aZ6BSMCG$$b20$$c20180910$$lMAI60$$h1037
001609545 CAT   L $$aZ6BSMCG$$b20$$c20181015$$lMAI60$$h1540
001609545 CAT   L $$aZ6BSMCG$$b20$$c20190520$$lMAI60$$h1548
001609545 CAT   L $$aZ6BSMCG$$b20$$c20200323$$lMAI60$$h1331
001609545 CAT   L $$aZ6BSMCG$$b20$$c20201103$$lMAI60$$h1109
001609545 CAT   L $$aZ6BSMCG$$b20$$c20201103$$lMAI60$$h1129
001609545 CAT   L $$aZ6BSMCG$$b20$$c20210122$$lMAI60$$h1426
001609545 CAT   L $$aZ6BSMCG$$b20$$c20210122$$lMAI60$$h1431
001609545 CAT   L $$aZ6BSMCG$$b20$$c20210122$$lMAI60$$h1431
001609545 003   L MdBo
001609545 004   L $$aBS0001756879
001609545 004   L $$aBS0001756879.06000
001609545 005   L 20021104
001609545 008   L ||||||4p^^^^8^^^2001uueng0021104
001609545 022   L $$a0025-5769
001609545 LKR   L $$aHOL$$lMAI01$$b000511137
001609545 852   L $$bBS-BS$$cPERIO$$t000001
001609545 853   L $$899$$av.$$bno.$$u9$$vr$$i(year)$$j(month)$$wm
001609545 853X  L $$899$$906000$$a115$$b4$$i2021$$j01$$320220101
001609545 86630 L $$av.46-48(JAN.1953-DEC.1955), v.50-62(JAN.1957-DEC.1969), v.64-98(JAN.1971-AUG.2005), v.101-113(AUG.2007-Dec.2020)
001609628 OWN   L $$aBSHOL
001609628 FMT   L HO
001609628 LDR   L 00000ny^^^22000003n^4500
001609628 CAT   L $$aCONV$$b20$$c20021125$$lMAI60$$h1524
001609628 CAT   L $$aZ5BSAH$$b20$$c20030509$$lMAI60$$h1615
001609628 CAT   L $$aZ6BSMCG$$b20$$c20030512$$lMAI60$$h1032
001609628 CAT   L $$aZ6BSMCG$$b20$$c20030512$$lMAI60$$h1035
001609628 CAT   L $$aZ6BSMCG$$b20$$c20030512$$lMAI60$$h1035
001609628 CAT   L $$aZ6BSMCG$$b20$$c20030813$$lMAI60$$h1000
001609628 CAT   L $$aZ6BSMCG$$b20$$c20040205$$lMAI60$$h1908
001609628 CAT   L $$aZ6BSMCG$$b20$$c20040205$$lMAI60$$h1912
001609628 CAT   L $$aZ6BSMCG$$b20$$c20040205$$lMAI60$$h1912
001609628 CAT   L $$aZ6BSMCG$$b20$$c20040415$$lMAI60$$h1710
001609628 CAT   L $$aZ6BSMCG$$b20$$c20050311$$lMAI60$$h1009
001609628 CAT   L $$aZ6BSMCG$$b20$$c20050311$$lMAI60$$h1009
001609628 CAT   L $$aZ6BSMCG$$b20$$c20050311$$lMAI60$$h1011
001609628 CAT   L $$aZ6BSMCG$$b20$$c20050509$$lMAI60$$h1654
001609628 CAT   L $$aZ6BSMCG$$b20$$c20060202$$lMAI60$$h1604
001609628 CAT   L $$aZ6BSMCG$$b20$$c20070222$$lMAI60$$h1753
001609628 CAT   L $$aZ6BSMCG$$b20$$c20070302$$lMAI60$$h1447
001609628 CAT   L $$aZ6BSMCG$$b20$$c20071120$$lMAI60$$h1036
001609628 CAT   L $$aZ6BSMCG$$b20$$c20071120$$lMAI60$$h1036
001609628 CAT   L $$aZ6BSMCG$$b20$$c20080123$$lMAI60$$h1945
001609628 CAT   L $$aZ6BSMCG$$b20$$c20080123$$lMAI60$$h1945
001609628 CAT   L $$aZ6BSMCG$$b20$$c20080319$$lMAI60$$h1324
001609628 CAT   L $$aZ6BSMCG$$b20$$c20090204$$lMAI60$$h1619
001609628 CAT   L $$aZ6BSMCG$$b20$$c20090204$$lMAI60$$h1619
001609628 CAT   L $$aZ6BSMCG$$b20$$c20090213$$lMAI60$$h1118
001609628 CAT   L $$aZ6BSMCG$$b20$$c20090213$$lMAI60$$h1118
001609628 CAT   L $$aZ6BSMCG$$b20$$c20110114$$lMAI60$$h1124
001609628 CAT   L $$aZ6BSMCG$$b20$$c20110311$$lMAI60$$h1446
001609628 CAT   L $$aZ6BSMCG$$b20$$c20120110$$lMAI60$$h1145
001609628 CAT   L $$aZ6BSMCG$$b20$$c20120402$$lMAI60$$h1259
001609628 CAT   L $$aZ6BSMCG$$b20$$c20130116$$lMAI60$$h1027
001609628 CAT   L $$aZ6BSMCG$$b20$$c20131010$$lMAI60$$h0913
001609628 CAT   L $$aZ6BSMCG$$b20$$c20150130$$lMAI60$$h0942
001609628 CAT   L $$aZ6BSMCG$$b20$$c20151007$$lMAI60$$h0911
001609628 CAT   L $$aZ6BSMCG$$b20$$c20170109$$lMAI60$$h1419
001609628 CAT   L $$aZ6BSMCG$$b20$$c20170306$$lMAI60$$h1115
001609628 CAT   L $$aZ6BSMCG$$b20$$c20180226$$lMAI60$$h1006
001609628 CAT   L $$aZ6BSMCG$$b20$$c20191009$$lMAI60$$h1408
001609628 CAT   L $$aZ6BSMCG$$b20$$c20200205$$lMAI60$$h0910
001609628 CAT   L $$aZ6BSMCG$$b20$$c20210122$$lMAI60$$h1201
001609628 003   L MdBo
001609628 004   L $$aBS0001763481
001609628 004   L $$aBS0001763481.06000
001609628 005   L 20020215
001609628 008   L ||||||4p^^^^8^^^1001uueng0020215
001609628 022   L $$a0034-0553
001609628 LKR   L $$aHOL$$lMAI01$$b000512174
001609628 852   L $$bBS-BS$$cPERIO$$t000001
001609628 853   L $$899$$av.$$bno.$$u4$$vr$$i(year)$$j(month)$$wq
001609628 853X  L $$899$$906000$$a56$$b1$$i2021$$j01/03$$320210101
001609628 86630 L $$av.4-39(FALL 1968-DEC.-2004), v.41-55(JAN.2006-DEC.2020)
001609756 OWN   L $$aBSHOL
001609756 FMT   L HO
001609756 LDR   L 00000ny^^^22000003n^4500
001609756 CAT   L $$aCONV$$b20$$c20021125$$lMAI60$$h1524
001609756 CAT   L $$aZ6BSMCG$$b20$$c20040105$$lMAI60$$h1555
001609756 CAT   L $$aZ6BSMCG$$b20$$c20050316$$lMAI60$$h1710
001609756 CAT   L $$aZ6BSMCG$$b20$$c20050316$$lMAI60$$h1711
001609756 CAT   L $$aZ6BSMCG$$b20$$c20070601$$lMAI60$$h1550
001609756 CAT   L $$aZ6BSMCG$$b20$$c20070626$$lMAI60$$h1107
001609756 CAT   L $$aZ6BSMCG$$b20$$c20070724$$lMAI60$$h1135
001609756 CAT   L $$aZ6BSMCG$$b20$$c20070724$$lMAI60$$h1158
001609756 CAT   L $$aZ6BSMCG$$b20$$c20070724$$lMAI60$$h1224
001609756 CAT   L $$aZ6BSMCG$$b20$$c20080205$$lMAI60$$h1641
001609756 CAT   L $$aZ6BSMCG$$b20$$c20080205$$lMAI60$$h1641
001609756 CAT   L $$aZ6BSMCG$$b20$$c20080923$$lMAI60$$h1103
001609756 CAT   L $$aZ6BSMCG$$b20$$c20080923$$lMAI60$$h1103
001609756 CAT   L $$aZ6BSMCG$$b20$$c20090204$$lMAI60$$h1756
001609756 CAT   L $$aZ6BSMCG$$b20$$c20100126$$lMAI60$$h1146
001609756 CAT   L $$aZ6BSMCG$$b20$$c20110106$$lMAI60$$h1138
001609756 CAT   L $$aZ6BSMCG$$b20$$c20110223$$lMAI60$$h1942
001609756 CAT   L $$aZ6BSMCG$$b20$$c20120110$$lMAI60$$h1013
001609756 CAT   L $$aZ6BSMCG$$b20$$c20120209$$lMAI60$$h1501
001609756 CAT   L $$aZ6BSMCG$$b20$$c20130128$$lMAI60$$h1416
001609756 CAT   L $$aZ6BSMCG$$b20$$c20140205$$lMAI60$$h1055
001609756 CAT   L $$aZ6BSMCG$$b20$$c20150122$$lMAI60$$h1014
001609756 CAT   L $$aZ6BSMCG$$b20$$c20151130$$lMAI60$$h0939
001609756 CAT   L $$aZ6BSMCG$$b20$$c20160804$$lMAI60$$h1008
001609756 CAT   L $$aZ6BSMCG$$b20$$c20161128$$lMAI60$$h1037
001609756 CAT   L $$aZ6BSMCG$$b20$$c20170927$$lMAI60$$h1504
001609756 CAT   L $$aZ6BSMCG$$b20$$c20180212$$lMAI60$$h1012
001609756 CAT   L $$aZ6BSMCG$$b20$$c20181121$$lMAI60$$h1018
001609756 CAT   L $$aZ6BSMCG$$b20$$c20191025$$lMAI60$$h1413
001609756 CAT   L $$aZ6BSMCG$$b20$$c20200817$$lMAI60$$h1014
001609756 CAT   L $$aZ6BSMCG$$b20$$c20210122$$lMAI60$$h1417
001609756 CAT   L $$aZ6BSMCG$$b20$$c20210122$$lMAI60$$h1417
001609756 003   L MdBo
001609756 004   L $$aBS0001782320
001609756 004   L $$aBS0001782320.06000
001609756 005   L 20010607
001609756 008   L ||||||4p^^^^8^^^2001uueng0010607
001609756 022   L $$a0022-2429
001609756 LKR   L $$aHOL$$lMAI01$$b000514615
001609756 852   L $$bBS-BS$$cPERIO$$t000001
001609756 853   L $$899$$av.$$bno.$$u6$$vr$$i(year)$$j(month)$$wb
001609756 853X  L $$899$$906000$$a86$$b1$$i2022$$j01$$320220101
001609756 86630 L $$av.42-68(JAN.1978-OCT.2004), v.71-84(JAN.2007-NOV.2020), v.85- (JAN.2021- )
001609764 OWN   L $$aBSHOL
001609764 FMT   L HO
001609764 LDR   L 00000ny^^^22000003n^4500
001609764 CAT   L $$aCONV$$b20$$c20021125$$lMAI60$$h1524
001609764 CAT   L $$aZ6BSMCG$$b20$$c20030204$$lMAI60$$h1056
001609764 CAT   L $$aZ6BSMCG$$b20$$c20030409$$lMAI60$$h2205
001609764 CAT   L $$aZ6BSMCG$$b20$$c20030410$$lMAI60$$h1412
001609764 CAT   L $$aZ6BSMCG$$b20$$c20030410$$lMAI60$$h1412
001609764 CAT   L $$aZ6BSMCG$$b20$$c20030410$$lMAI60$$h1412
001609764 CAT   L $$aZ6BSMCG$$b20$$c20030509$$lMAI60$$h0853
001609764 CAT   L $$aZ6BSMCG$$b20$$c20030509$$lMAI60$$h0853
001609764 CAT   L $$aZ6BSMCG$$b20$$c20030910$$lMAI60$$h1513
001609764 CAT   L $$aZ6BSMCG$$b20$$c20030910$$lMAI60$$h1515
001609764 CAT   L $$aZ6BSMCG$$b20$$c20040114$$lMAI60$$h1748
001609764 CAT   L $$aZ6BSMCG$$b20$$c20040114$$lMAI60$$h1750
001609764 CAT   L $$aZ5BSAH$$b20$$c20050207$$lMAI60$$h1845
001609764 CAT   L $$aZ5BSAH$$b20$$c20050207$$lMAI60$$h1846
001609764 CAT   L $$aZ5BSAH$$b20$$c20050207$$lMAI60$$h1849
001609764 CAT   L $$aZ6BSMCG$$b20$$c20050404$$lMAI60$$h1016
001609764 CAT   L $$aZ6BSMCG$$b20$$c20050404$$lMAI60$$h1016
001609764 CAT   L $$aZ5BSAH$$b20$$c20060105$$lMAI60$$h1628
001609764 CAT   L $$aZ5BSAH$$b20$$c20060105$$lMAI60$$h1629
001609764 CAT   L $$aZ6BSMCG$$b20$$c20061017$$lMAI60$$h1119
001609764 CAT   L $$aZ6BSMCG$$b20$$c20070111$$lMAI60$$h1106
001609764 CAT   L $$aZ6BSMCG$$b20$$c20070111$$lMAI60$$h1106
001609764 CAT   L $$aZ6BSMCG$$b20$$c20070220$$lMAI60$$h1445
001609764 CAT   L $$aZ6BSMCG$$b20$$c20070717$$lMAI60$$h0948
001609764 CAT   L $$aZ6BSMCG$$b20$$c20080111$$lMAI60$$h1248
001609764 CAT   L $$aZ6BSMCG$$b20$$c20080228$$lMAI60$$h1618
001609764 CAT   L $$aZ6BSMCG$$b20$$c20090202$$lMAI60$$h1312
001609764 CAT   L $$aZ6BSMCG$$b20$$c20090206$$lMAI60$$h1250
001609764 CAT   L $$aZ6BSMCG$$b20$$c20090206$$lMAI60$$h1251
001609764 CAT   L $$aZ6BSMCG$$b20$$c20100304$$lMAI60$$h1720
001609764 CAT   L $$aZ6BSMCG$$b20$$c20110105$$lMAI60$$h1648
001609764 CAT   L $$aZ6BSMCG$$b20$$c20110301$$lMAI60$$h1243
001609764 CAT   L $$aZ6BSMCG$$b20$$c20120110$$lMAI60$$h1020
001609764 CAT   L $$aZ6BSMCG$$b20$$c20120302$$lMAI60$$h1442
001609764 CAT   L $$aZ6BSMCG$$b20$$c20130128$$lMAI60$$h1654
001609764 CAT   L $$aZ6BSMCG$$b20$$c20131219$$lMAI60$$h1551
001609764 CAT   L $$aZ6BSMCG$$b20$$c20150113$$lMAI60$$h0856
001609764 CAT   L $$aZ6BSMCG$$b20$$c20151027$$lMAI60$$h1130
001609764 CAT   L $$aZ6BSMCG$$b20$$c20161024$$lMAI60$$h0816
001609764 CAT   L $$aZ6BSMCG$$b20$$c20171106$$lMAI60$$h1720
001609764 CAT   L $$aZ6BSMCG$$b20$$c20181030$$lMAI60$$h1451
001609764 CAT   L $$aZ6BSMCG$$b20$$c20191025$$lMAI60$$h1413
001609764 CAT   L $$aZ6BSMCG$$b20$$c20200923$$lMAI60$$h1031
001609764 CAT   L $$aZ6BSMCG$$b20$$c20210122$$lMAI60$$h1424
001609764 CAT   L $$aZ6BSMCG$$b20$$c20210122$$lMAI60$$h1425
001609764 003   L MdBo
001609764 004   L $$aBS0001782535
001609764 004   L $$aBS0001782535.06000
001609764 005   L 20020917
001609764 008   L ||||||4p^^^^8^^^1001uueng0020917
001609764 022   L $$a0022-4871
001609764 LKR   L $$aHOL$$lMAI01$$b000514647
001609764 852   L $$bBS-BS$$cPERIO$$t000001
001609764 853   L $$899$$av.$$bno.$$u5$$vr$$i(year)$$j(month)$$wm$$ypm01/02,03/04,05/06,09/10,11/12$$x01
001609764 853X  L $$899$$906000$$a73$$b1$$i2022$$j01/02$$320220101
001609764 85332 L $$81
001609764 86630 L $$av.1-14(MAR.1950-DEC.1963),v.17-34(MAR.1965-DEC.1983),v.37-71(JAN.1986-DEC.2020),v.72- (Jan./Feb.2021- )
001609939 OWN   L $$aBSHOL
001609939 FMT   L HO
001609939 LDR   L 00000ny^^^22000003n^4500
001609939 CAT   L $$aCONV$$b20$$c20021125$$lMAI60$$h1524
001609939 CAT   L $$aZ6BSMCG$$b20$$c20030305$$lMAI60$$h1609
001609939 CAT   L $$aZ6BSMCG$$b20$$c20030305$$lMAI60$$h1612
001609939 CAT   L $$aZ6BSMCG$$b20$$c20030305$$lMAI60$$h1612
001609939 CAT   L $$aZ6BSMCG$$b20$$c20031105$$lMAI60$$h2015
001609939 CAT   L $$aZ6BSMCG$$b20$$c20040603$$lMAI60$$h1224
001609939 CAT   L $$aZ6BSMCG$$b20$$c20040603$$lMAI60$$h1224
001609939 CAT   L $$aZ5BSAH$$b20$$c20050211$$lMAI60$$h1035
001609939 CAT   L $$aZ5BSAH$$b20$$c20050211$$lMAI60$$h1036
001609939 CAT   L $$aZ5BSAH$$b20$$c20050211$$lMAI60$$h1037
001609939 CAT   L $$aZ6BSMCG$$b20$$c20050218$$lMAI60$$h1346
001609939 CAT   L $$aZ6BSMCG$$b20$$c20060914$$lMAI60$$h1650
001609939 CAT   L $$aZ6BSMCG$$b20$$c20070215$$lMAI60$$h1032
001609939 CAT   L $$aZ6BSMCG$$b20$$c20070215$$lMAI60$$h1032
001609939 CAT   L $$aZ6BSMCG$$b20$$c20070215$$lMAI60$$h1032
001609939 CAT   L $$aZ6BSMCG$$b20$$c20071212$$lMAI60$$h1936
001609939 CAT   L $$aZ6BSMCG$$b20$$c20071220$$lMAI60$$h1445
001609939 CAT   L $$aZ6BSMCG$$b20$$c20071220$$lMAI60$$h1445
001609939 CAT   L $$aZ6BSMCG$$b20$$c20090609$$lMAI60$$h0902
001609939 CAT   L $$aZ6BSMCG$$b20$$c20090609$$lMAI60$$h0902
001609939 CAT   L $$aZ6BSMCG$$b20$$c20090609$$lMAI60$$h0903
001609939 CAT   L $$aZ6BSMCG$$b20$$c20100121$$lMAI60$$h1156
001609939 CAT   L $$aZ6BSMCG$$b20$$c20100217$$lMAI60$$h1419
001609939 CAT   L $$aZ6BSMCG$$b20$$c20101214$$lMAI60$$h1608
001609939 CAT   L $$aZ6BSMCG$$b20$$c20110208$$lMAI60$$h0933
001609939 CAT   L $$aZ6BSMCG$$b20$$c20110208$$lMAI60$$h0933
001609939 CAT   L $$aZ6BSMCG$$b20$$c20110221$$lMAI60$$h1108
001609939 CAT   L $$aZ6BSMCG$$b20$$c20120120$$lMAI60$$h1232
001609939 CAT   L $$aZ6BSMCG$$b20$$c20120131$$lMAI60$$h1251
001609939 CAT   L $$aZ6BSMCG$$b20$$c20130124$$lMAI60$$h1501
001609939 CAT   L $$aZ6BSMCG$$b20$$c20140131$$lMAI60$$h1354
001609939 CAT   L $$aZ6BSMCG$$b20$$c20150129$$lMAI60$$h0843
001609939 CAT   L $$aZ6BSMCG$$b20$$c20160106$$lMAI60$$h1642
001609939 CAT   L $$aZ6BSMCG$$b20$$c20160727$$lMAI60$$h1055
001609939 CAT   L $$aZ6BSMCG$$b20$$c20161118$$lMAI60$$h0925
001609939 CAT   L $$aZ6BSMCG$$b20$$c20180222$$lMAI60$$h1150
001609939 CAT   L $$aZ6BSMCG$$b20$$c20190304$$lMAI60$$h0852
001609939 CAT   L $$aZ6BSMCG$$b20$$c20191122$$lMAI60$$h1210
001609939 CAT   L $$aZ6BSMCG$$b20$$c20201102$$lMAI60$$h1111
001609939 CAT   L $$aZ6BSMCG$$b20$$c20201102$$lMAI60$$h1112
001609939 CAT   L $$aZ6BSMCG$$b20$$c20210122$$lMAI60$$h1357
001609939 CAT   L $$aZ6BSMCG$$b20$$c20210122$$lMAI60$$h1358
001609939 003   L MdBo
001609939 004   L $$aBS0001799967
001609939 004   L $$aBS0001799967.06000
001609939 005   L 20020605
001609939 008   L ||||||4?^^^^8^^^1001uueng0020605
001609939 022   L $$a0021-8758
001609939 LKR   L $$aHOL$$lMAI01$$b000516572
001609939 852   L $$bBS-BS$$cPERIO$$t000001
001609939 853   L $$899$$av.$$bno.$$u4$$vr$$i(year)$$j(month)$$wq$$ypm02,05,08,12
001609939 853X  L $$899$$906000$$a56$$b1$$i2022$$j02$$320220201
001609939 86630 L $$av.7-54(APR.1973-Dec.2020)
001611768 OWN   L $$aBSHOL
001611768 FMT   L HO
001611768 LDR   L 00000ny^^^22000003n^4500
001611768 CAT   L $$aCONV$$b20$$c20021125$$lMAI60$$h1524
001611768 CAT   L $$aZ6BSMCG$$b20$$c20030224$$lMAI60$$h1227
001611768 CAT   L $$aZ6BSMCG$$b20$$c20030224$$lMAI60$$h1228
001611768 CAT   L $$aZ6BSMCG$$b20$$c20030224$$lMAI60$$h1228
001611768 CAT   L $$aZ6BSMCG$$b20$$c20040204$$lMAI60$$h1805
001611768 CAT   L $$aZ6BSMCG$$b20$$c20040204$$lMAI60$$h1805
001611768 CAT   L $$aZ6BSMCG$$b20$$c20040415$$lMAI60$$h1708
001611768 CAT   L $$aZ6BSMCG$$b20$$c20050204$$lMAI60$$h1256
001611768 CAT   L $$aZ6BSMCG$$b20$$c20050204$$lMAI60$$h1257
001611768 CAT   L $$aZ6BSMCG$$b20$$c20050509$$lMAI60$$h1649
001611768 CAT   L $$aZ5BSAH$$b20$$c20060424$$lMAI60$$h1755
001611768 CAT   L $$aZ5BSAH$$b20$$c20060424$$lMAI60$$h1756
001611768 CAT   L $$aZ6BSMCG$$b20$$c20061031$$lMAI60$$h1043
001611768 CAT   L $$aZ6BSMCG$$b20$$c20070208$$lMAI60$$h1654
001611768 CAT   L $$aZ6BSMCG$$b20$$c20070208$$lMAI60$$h1654
001611768 CAT   L $$aZ6BSMCG$$b20$$c20070208$$lMAI60$$h1654
001611768 CAT   L $$aZ6BSMCG$$b20$$c20080211$$lMAI60$$h1035
001611768 CAT   L $$aZ6BSMCG$$b20$$c20080319$$lMAI60$$h1323
001611768 CAT   L $$aZ6BSMCG$$b20$$c20090213$$lMAI60$$h1114
001611768 CAT   L $$aZ6BSMCG$$b20$$c20090213$$lMAI60$$h1114
001611768 CAT   L $$aZ6BSMCG$$b20$$c20100201$$lMAI60$$h1019
001611768 CAT   L $$aZ6BSMCG$$b20$$c20110114$$lMAI60$$h1124
001611768 CAT   L $$aZ6BSMCG$$b20$$c20120202$$lMAI60$$h0938
001611768 CAT   L $$aZ6BSMCG$$b20$$c20120402$$lMAI60$$h1250
001611768 CAT   L $$aZ6BSMCG$$b20$$c20130205$$lMAI60$$h1229
001611768 CAT   L $$aZ6BSMCG$$b20$$c20140212$$lMAI60$$h0847
001611768 CAT   L $$aZ6BSMCG$$b20$$c20150209$$lMAI60$$h0757
001611768 CAT   L $$aZ6BSMCG$$b20$$c20160104$$lMAI60$$h1427
001611768 CAT   L $$aZ6BSMCG$$b20$$c20160307$$lMAI60$$h1008
001611768 CAT   L $$aZ6BSMCG$$b20$$c20161215$$lMAI60$$h1423
001611768 CAT   L $$aZ6BSMCG$$b20$$c20170306$$lMAI60$$h1113
001611768 CAT   L $$aZ6BSMCG$$b20$$c20171121$$lMAI60$$h1050
001611768 CAT   L $$aZ6BSMCG$$b20$$c20171211$$lMAI60$$h1123
001611768 CAT   L $$aZ6BSMCG$$b20$$c20190429$$lMAI60$$h0820
001611768 CAT   L $$aZ6BSMCG$$b20$$c20200513$$lMAI60$$h1526
001611768 CAT   L $$aZ6BSMCG$$b20$$c20200513$$lMAI60$$h1526
001611768 CAT   L $$aZ6BSMCG$$b20$$c20210122$$lMAI60$$h1047
001611768 003   L MdBo
001611768 004   L $$aBS0002244315
001611768 004   L $$aBS0002244315.06000
001611768 005   L 20020613
001611768 008   L ||||||4p^^^^8^^^1001uueng0020613
001611768 022   L $$a0034-0510
001611768 LKR   L $$aHOL$$lMAI01$$b000585985
001611768 852   L $$bBS-BS$$cPERIO$$t000001
001611768 853   L $$899$$av.$$bno.$$u4$$vr$$i(year)$$j(season)$$wq
001611768 853X  L $$899$$906000$$a58$$b1$$i2021$$j21$$320210301
001611768 86630 L $$av.7-57(SPRG.1970-Wntr.2020)
001617156 OWN   L $$aBSHOL
001617156 FMT   L HO
001617156 LDR   L 00000ny^^^22000003n^4500
001617156 CAT   L $$aCONV$$b20$$c20021125$$lMAI60$$h1525
001617156 CAT   L $$aZ6BSMCG$$b20$$c20030127$$lMAI60$$h1703
001617156 CAT   L $$aZ6BSMCG$$b20$$c20031210$$lMAI60$$h1725
001617156 CAT   L $$aZ6BSMCG$$b20$$c20031210$$lMAI60$$h1725
001617156 CAT   L $$aZ6BSMCG$$b20$$c20040210$$lMAI60$$h1258
001617156 CAT   L $$aZ6BSMCG$$b20$$c20040210$$lMAI60$$h1258
001617156 CAT   L $$aZ6BSMCG$$b20$$c20050209$$lMAI60$$h1807
001617156 CAT   L $$aZ6BSMCG$$b20$$c20050209$$lMAI60$$h1807
001617156 CAT   L $$aZ6BSMCG$$b20$$c20050420$$lMAI60$$h1447
001617156 CAT   L $$aZ6BSMCG$$b20$$c20060207$$lMAI60$$h1540
001617156 CAT   L $$aZ6BSMCG$$b20$$c20060817$$lMAI60$$h1224
001617156 CAT   L $$aZ6BSMCG$$b20$$c20061129$$lMAI60$$h2104
001617156 CAT   L $$aZ6BSMCG$$b20$$c20061129$$lMAI60$$h2105
001617156 CAT   L $$aZ6BSMCG$$b20$$c20070207$$lMAI60$$h1516
001617156 CAT   L $$aZ6BSMCG$$b20$$c20070808$$lMAI60$$h1513
001617156 CAT   L $$aZ6BSMCG$$b20$$c20080102$$lMAI60$$h1207
001617156 CAT   L $$aZ6BSMCG$$b20$$c20090203$$lMAI60$$h1152
001617156 CAT   L $$aZ6BSMCG$$b20$$c20090203$$lMAI60$$h1152
001617156 CAT   L $$aZ6BSMCG$$b20$$c20090209$$lMAI60$$h1244
001617156 CAT   L $$aZ6BSMCG$$b20$$c20100128$$lMAI60$$h1643
001617156 CAT   L $$aZ6BSMCG$$b20$$c20110110$$lMAI60$$h1454
001617156 CAT   L $$aZ6BSMCG$$b20$$c20111031$$lMAI60$$h1021
001617156 CAT   L $$aZ6BSMCG$$b20$$c20111031$$lMAI60$$h1022
001617156 CAT   L $$aZ6BSMCG$$b20$$c20111207$$lMAI60$$h1535
001617156 CAT   L $$aZ6BSMCG$$b20$$c20111207$$lMAI60$$h1535
001617156 CAT   L $$aZ6BSMCG$$b20$$c20111209$$lMAI60$$h1041
001617156 CAT   L $$aZ6BSMCG$$b20$$c20120227$$lMAI60$$h0952
001617156 CAT   L $$aZ6BSMCG$$b20$$c20120308$$lMAI60$$h1623
001617156 CAT   L $$aZ6BSMCG$$b20$$c20130129$$lMAI60$$h1705
001617156 CAT   L $$aZ5BSER$$b20$$c20140128$$lMAI60$$h1849
001617156 CAT   L $$aZ6BSMCG$$b20$$c20150205$$lMAI60$$h1651
001617156 CAT   L $$aZ6BSMCG$$b20$$c20151124$$lMAI60$$h1020
001617156 CAT   L $$aZ6BSMCG$$b20$$c20161205$$lMAI60$$h1449
001617156 CAT   L $$aZ6BSMCG$$b20$$c20170705$$lMAI60$$h1233
001617156 CAT   L $$aZ6BSMCG$$b20$$c20171017$$lMAI60$$h1006
001617156 CAT   L $$aZ6BSMCG$$b20$$c20171106$$lMAI60$$h1721
001617156 CAT   L $$aZ6BSMCG$$b20$$c20181203$$lMAI60$$h1235
001617156 CAT   L $$aZ6BSMCG$$b20$$c20190930$$lMAI60$$h1422
001617156 CAT   L $$aZ6BSMCG$$b20$$c20201020$$lMAI60$$h1040
001617156 CAT   L $$aZ6BSMCG$$b20$$c20210122$$lMAI60$$h1432
001617156 CAT   L $$aZ6BSMCG$$b20$$c20210122$$lMAI60$$h1433
001617156 003   L MdBo
001617156 004   L $$aBS0004393549
001617156 004   L $$aBS0004393549.06000
001617156 005   L 20021104
001617156 008   L ||||||4p^^^^8^^^1001uueng0021104
001617156 022   L $$a0163-4437
001617156 LKR   L $$aHOL$$lMAI01$$b000811241
001617156 852   L $$bBS-BS$$cPERIO$$t000001
001617156 853   L $$899$$av.$$bno.$$u8$$vr$$i(year)$$j(month)$$w8$$ypm01,03,04,05,07,09,10,11
001617156 853X  L $$899$$906000$$a43$$b1$$i2021$$j01$$320210101
001617156 86630 L $$av.23-42(JAN.2001-NOV.2020), v.43- (Jan.2021- )
001622398 OWN   L $$aBSHOL
001622398 FMT   L HO
001622398 LDR   L 00000ny^^^22000003n^4500
001622398 CAT   L $$aCONV$$b20$$c20021125$$lMAI60$$h1525
001622398 CAT   L $$aZ6BSMCG$$b20$$c20030307$$lMAI60$$h1633
001622398 CAT   L $$aZ5BSAH$$b20$$c20030331$$lMAI60$$h2226
001622398 CAT   L $$aZ6BSMCG$$b20$$c20030612$$lMAI60$$h1811
001622398 CAT   L $$aZ6BSMCG$$b20$$c20031218$$lMAI60$$h1825
001622398 CAT   L $$aZ6BSMCG$$b20$$c20031218$$lMAI60$$h1825
001622398 CAT   L $$aZ6BSMCG$$b20$$c20040121$$lMAI60$$h1534
001622398 CAT   L $$aZ6BSMCG$$b20$$c20040121$$lMAI60$$h1537
001622398 CAT   L $$aZ6BSMCG$$b20$$c20040121$$lMAI60$$h1843
001622398 CAT   L $$aZ5BSAH$$b20$$c20050211$$lMAI60$$h1352
001622398 CAT   L $$aZ5BSAH$$b20$$c20050211$$lMAI60$$h1353
001622398 CAT   L $$aZ5BSAH$$b20$$c20050211$$lMAI60$$h1400
001622398 CAT   L $$aZ5BSAH$$b20$$c20050211$$lMAI60$$h1400
001622398 CAT   L $$aZ5BSAH$$b20$$c20050211$$lMAI60$$h1400
001622398 CAT   L $$aZ5BSAH$$b20$$c20050211$$lMAI60$$h1401
001622398 CAT   L $$aZ6BSMCG$$b20$$c20050322$$lMAI60$$h1613
001622398 CAT   L $$aZ6BSMCG$$b20$$c20061016$$lMAI60$$h1033
001622398 CAT   L $$aZ6BSMCG$$b20$$c20070312$$lMAI60$$h1114
001622398 CAT   L $$aZ6BSMCG$$b20$$c20070312$$lMAI60$$h1114
001622398 CAT   L $$aZ6BSMCG$$b20$$c20080104$$lMAI60$$h1615
001622398 CAT   L $$aZ6BSMCG$$b20$$c20080104$$lMAI60$$h1617
001622398 CAT   L $$aZ6BSMCG$$b20$$c20080227$$lMAI60$$h2003
001622398 CAT   L $$aZ6BSMCG$$b20$$c20090202$$lMAI60$$h1302
001622398 CAT   L $$aZ6BSMCG$$b20$$c20090202$$lMAI60$$h1302
001622398 CAT   L $$aZ6BSMCG$$b20$$c20090205$$lMAI60$$h1543
001622398 CAT   L $$aZ6BSMCG$$b20$$c20091118$$lMAI60$$h1944
001622398 CAT   L $$aZ6BSMCG$$b20$$c20091118$$lMAI60$$h1944
001622398 CAT   L $$aZ6BSMCG$$b20$$c20091118$$lMAI60$$h1944
001622398 CAT   L $$aZ6BSMCG$$b20$$c20110106$$lMAI60$$h1248
001622398 CAT   L $$aZ6BSMCG$$b20$$c20110225$$lMAI60$$h1546
001622398 CAT   L $$aZ6BSMCG$$b20$$c20120125$$lMAI60$$h1702
001622398 CAT   L $$aZ6BSMCG$$b20$$c20120301$$lMAI60$$h1053
001622398 CAT   L $$aZ5BSER$$b20$$c20130126$$lMAI60$$h1112
001622398 CAT   L $$aZ6BSMCG$$b20$$c20140205$$lMAI60$$h1436
001622398 CAT   L $$aZ6BSMCG$$b20$$c20150122$$lMAI60$$h1014
001622398 CAT   L $$aZ6BSMCG$$b20$$c20151209$$lMAI60$$h1518
001622398 CAT   L $$aZ6BSMCG$$b20$$c20160805$$lMAI60$$h1428
001622398 CAT   L $$aZ6BSMCG$$b20$$c20170106$$lMAI60$$h1606
001622398 CAT   L $$aZ6BSMCG$$b20$$c20170303$$lMAI60$$h1044
001622398 CAT   L $$aZ6BSMCG$$b20$$c20171003$$lMAI60$$h1607
001622398 CAT   L $$aZ6BSMCG$$b20$$c20171214$$lMAI60$$h1303
001622398 CAT   L $$aZ6BSMCG$$b20$$c20181212$$lMAI60$$h1319
001622398 CAT   L $$aZ6BSMCG$$b20$$c20191210$$lMAI60$$h1047
001622398 CAT   L $$aZ6BSMCG$$b20$$c20191210$$lMAI60$$h1049
001622398 CAT   L $$aZ6BSMCG$$b20$$c20191210$$lMAI60$$h1049
001622398 CAT   L $$aZ6BSMCG$$b20$$c20191210$$lMAI60$$h1049
001622398 CAT   L $$aZ6BSMCG$$b20$$c20200908$$lMAI60$$h1147
001622398 CAT   L $$aZ6BSMCG$$b20$$c20210108$$lMAI60$$h0947
001622398 CAT   L $$aZ6BSMCG$$b20$$c20210122$$lMAI60$$h1420
001622398 CAT   L $$aZ6BSMCG$$b20$$c20210122$$lMAI60$$h1421
001622398 CAT   L $$aZ6BSMCG$$b20$$c20210122$$lMAI60$$h1421
001622398 003   L MdBo
001622398 004   L $$aBS0007816794
001622398 004   L $$aBS0007816794.06000
001622398 005   L 20021113
001622398 008   L ||||||4p^^^^8^^^2001uueng0021113
001622398 022   L $$a0279-3695
001622398 LKR   L $$aHOL$$lMAI01$$b001040955
001622398 852   L $$bBS-BS$$cPERIO$$t000001
001622398 853   L $$899$$av.$$bno.$$u12$$vr$$i(year)$$j(month)$$wm
001622398 853X  L $$899$$906000$$a60$$b1$$i2022$$j01$$320230101
001622398 86630 L $$av.22-23(JUN.1984-JUL.1985), v.30-42(JUN.1992-DEC.2004), v.44-58(JAN.2006-DEC.2020), v.59- (Jan.2021- )
001632165 OWN   L $$aBSHOL
001632165 FMT   L HO
001632165 LDR   L 00000ny^^^22000003n^4500
001632165 CAT   L $$aCONV$$b20$$c20021125$$lMAI60$$h1525
001632165 CAT   L $$aZ5BSAH$$b20$$c20030415$$lMAI60$$h1240
001632165 CAT   L $$aZ6BSMCG$$b20$$c20030417$$lMAI60$$h1720
001632165 CAT   L $$aZ6BSMCG$$b20$$c20030417$$lMAI60$$h1721
001632165 CAT   L $$aZ6BSMCG$$b20$$c20030417$$lMAI60$$h1721
001632165 CAT   L $$aZ6BSMCG$$b20$$c20030717$$lMAI60$$h1353
001632165 CAT   L $$aZ6BSMCG$$b20$$c20040112$$lMAI60$$h1520
001632165 CAT   L $$aZ6BSMCG$$b20$$c20040112$$lMAI60$$h1520
001632165 CAT   L $$aZ6BSMCG$$b20$$c20040414$$lMAI60$$h1551
001632165 CAT   L $$aZ5BSAH$$b20$$c20041210$$lMAI60$$h1452
001632165 CAT   L $$aZ6BSMCG$$b20$$c20050505$$lMAI60$$h1246
001632165 CAT   L $$aZ6BSMCG$$b20$$c20050927$$lMAI60$$h1039
001632165 CAT   L $$aZ5BSAH$$b20$$c20060427$$lMAI60$$h1550
001632165 CAT   L $$aZ6BSMCG$$b20$$c20061030$$lMAI60$$h1032
001632165 CAT   L $$aZ6BSMCG$$b20$$c20070302$$lMAI60$$h1037
001632165 CAT   L $$aZ6BSMCG$$b20$$c20070302$$lMAI60$$h1037
001632165 CAT   L $$aZ6BSMCG$$b20$$c20070302$$lMAI60$$h1037
001632165 CAT   L $$aZ6BSMCG$$b20$$c20071024$$lMAI60$$h2152
001632165 CAT   L $$aZ6BSMCG$$b20$$c20080102$$lMAI60$$h1342
001632165 CAT   L $$aZ6BSMCG$$b20$$c20080312$$lMAI60$$h1754
001632165 CAT   L $$aZ6BSMCG$$b20$$c20090211$$lMAI60$$h1914
001632165 CAT   L $$aZ6BSMCG$$b20$$c20090211$$lMAI60$$h1914
001632165 CAT   L $$aZ6BSMCG$$b20$$c20100201$$lMAI60$$h1000
001632165 CAT   L $$aZ6BSMCG$$b20$$c20100322$$lMAI60$$h1609
001632165 CAT   L $$aZ6BSMCG$$b20$$c20100322$$lMAI60$$h1612
001632165 CAT   L $$aZ6BSMCG$$b20$$c20110113$$lMAI60$$h1229
001632165 CAT   L $$aZ6BSMCG$$b20$$c20110309$$lMAI60$$h1755
001632165 CAT   L $$aZ6BSMCG$$b20$$c20120131$$lMAI60$$h1004
001632165 CAT   L $$aZ6BSMCG$$b20$$c20120329$$lMAI60$$h0850
001632165 CAT   L $$aZ6BSMCG$$b20$$c20130205$$lMAI60$$h1133
001632165 CAT   L $$aZ6BSMCG$$b20$$c20140211$$lMAI60$$h1155
001632165 CAT   L $$aZ6BSMCG$$b20$$c20150206$$lMAI60$$h1612
001632165 CAT   L $$aZ6BSMCG$$b20$$c20151214$$lMAI60$$h1108
001632165 CAT   L $$aZ6BSMCG$$b20$$c20160412$$lMAI60$$h0907
001632165 CAT   L $$aZ6BSMCG$$b20$$c20160412$$lMAI60$$h0907
001632165 CAT   L $$aZ6BSMCG$$b20$$c20160412$$lMAI60$$h0908
001632165 CAT   L $$aZ6BSMCG$$b20$$c20161206$$lMAI60$$h1511
001632165 CAT   L $$aZ6BSMCG$$b20$$c20170228$$lMAI60$$h1034
001632165 CAT   L $$aZ6BSMCG$$b20$$c20171115$$lMAI60$$h1421
001632165 CAT   L $$aZ6BSMCG$$b20$$c20171214$$lMAI60$$h1126
001632165 CAT   L $$aZ6BSMCG$$b20$$c20181212$$lMAI60$$h1407
001632165 CAT   L $$aZ6BSMCG$$b20$$c20191210$$lMAI60$$h1102
001632165 CAT   L $$aZ6BSMCG$$b20$$c20201028$$lMAI60$$h1028
001632165 CAT   L $$aZ6BSMCG$$b20$$c20210122$$lMAI60$$h1441
001632165 CAT   L $$aZ6BSMCG$$b20$$c20210122$$lMAI60$$h1442
001632165 CAT   L $$aZ6BSMCG$$b20$$c20210122$$lMAI60$$h1443
001632165 CAT   L $$aZ6BSMCG$$b20$$c20210122$$lMAI60$$h1443
001632165 003   L MdBo
001632165 004   L $$aBS0018390376
001632165 004   L $$aBS0018390376.06000
001632165 005   L 20020408
001632165 008   L ||||||4?^^^^8^^^1001uueng0020408
001632165 022   L $$a1040-3590
001632165 LKR   L $$aHOL$$lMAI01$$b001653688
001632165 852   L $$bBS-BS$$cPERIO$$t000001
001632165 853   L $$899$$av.$$bno.$$u12$$vr$$i(year)$$j(month)$$wm
001632165 853X  L $$899$$906000$$a35$$b1$$i2023$$j01$$320230101
001632165 86630 L $$av.1-32(MAR.1989-NOV.2020), v.33- (JAN.2021- )
004209422 OWN   L $$aSUHOL
004209422 FMT   L HO
004209422 LDR   L 00000ny^^^22000003n^4500
004209422 CAT   L $$aCONV$$b20$$c20021125$$lMAI60$$h1811
004209422 CAT   L $$aUTILITY$$b20$$c20030226$$lMAI60$$h1539
004209422 CAT   L $$aZ6SUSP$$b20$$c20040723$$lMAI60$$h0941
004209422 CAT   L $$aZ6SUSP$$b20$$c20040723$$lMAI60$$h0941
004209422 CAT   L $$aZ6SUSP$$b20$$c20041116$$lMAI60$$h1155
004209422 CAT   L $$aZ6SUSP$$b20$$c20060308$$lMAI60$$h1351
004209422 CAT   L $$aZ6SUSP$$b20$$c20070410$$lMAI60$$h1110
004209422 CAT   L $$aZ6SUSP$$b20$$c20070820$$lMAI60$$h1151
004209422 CAT   L $$aXSUMZ$$b20$$c20080324$$lMAI60$$h1047
004209422 CAT   L $$aXSUMZ$$b20$$c20080515$$lMAI60$$h0854
004209422 CAT   L $$aZ6SUSP$$b20$$c20081028$$lMAI60$$h1042
004209422 CAT   L $$aXSULD$$b20$$c20091208$$lMAI60$$h1129
004209422 CAT   L $$aZ6SUSP$$b20$$c20100804$$lMAI60$$h1403
004209422 CAT   L $$aZ6SUSP$$b20$$c20110509$$lMAI60$$h1409
004209422 CAT   L $$aZ6SUSP$$b20$$c20120808$$lMAI60$$h1152
004209422 CAT   L $$aZ6SUSP$$b20$$c20130813$$lMAI60$$h1143
004209422 CAT   L $$aZ6SUSP$$b20$$c20141031$$lMAI60$$h1456
004209422 CAT   L $$aZ6SUACQ2$$b20$$c20151026$$lMAI60$$h1301
004209422 CAT   L $$aXSUBDD$$b20$$c20161014$$lMAI60$$h1509
004209422 CAT   L $$aZ5SUNK$$b20$$c20171026$$lMAI60$$h1441
004209422 CAT   L $$aZ5SUNK$$b20$$c20181217$$lMAI60$$h1449
004209422 CAT   L $$aXSUBDD$$b20$$c20191202$$lMAI60$$h0925
004209422 CAT   L $$aXSUBDD$$b20$$c20210122$$lMAI60$$h1440
004209422 003   L MdSalS
004209422 004   L $$aSS0001226911
004209422 004   L $$aSS0001226911.10000
004209422 005   L 20020305
004209422 008   L ||||||4p^^^^8^^^1001uueng0020305
004209422 022   L $$a0020-7438
004209422 LKR   L $$aHOL$$lMAI01$$b000407223
004209422 852   L $$bSU-SU$$cPER$$t000001
004209422 853   L $$899$$av.$$bno.$$u4$$vr$$i(year)$$j(month)$$wq
004209422 853X  L $$899$$910000$$a54$$b1$$i2022$$j02$$320220201
004209422 86630 L $$aHARDCOPY: Latest 6 years$$zONLINE: Click on Find It button.
004211801 OWN   L $$aSUHOL
004211801 FMT   L HO
004211801 LDR   L 00000ny^^^22000003n^4500
004211801 CAT   L $$aCONV$$b20$$c20021125$$lMAI60$$h1812
004211801 CAT   L $$aUTILITY$$b20$$c20030226$$lMAI60$$h1542
004211801 CAT   L $$aZ6SUSP$$b20$$c20031201$$lMAI60$$h1203
004211801 CAT   L $$aZ6SUSP$$b20$$c20031201$$lMAI60$$h1203
004211801 CAT   L $$aZ6SUSP$$b20$$c20040205$$lMAI60$$h1054
004211801 CAT   L $$aZ6SUSP$$b20$$c20040205$$lMAI60$$h1054
004211801 CAT   L $$aZ6SUSP$$b20$$c20040205$$lMAI60$$h1055
004211801 CAT   L $$aZ6SUSP$$b20$$c20040205$$lMAI60$$h1056
004211801 CAT   L $$aZ6SUSP$$b20$$c20040205$$lMAI60$$h1056
004211801 CAT   L $$aZ6SUSP$$b20$$c20040226$$lMAI60$$h1324
004211801 CAT   L $$aZ6SUSP$$b20$$c20040510$$lMAI60$$h1058
004211801 CAT   L $$aZ6SUSP$$b20$$c20040510$$lMAI60$$h1058
004211801 CAT   L $$aZ6SUSP$$b20$$c20040510$$lMAI60$$h1058
004211801 CAT   L $$aZ6SUSP$$b20$$c20040510$$lMAI60$$h1058
004211801 CAT   L $$aZ6SUSP$$b20$$c20040510$$lMAI60$$h1058
004211801 CAT   L $$aZ6SUSP$$b20$$c20040510$$lMAI60$$h1058
004211801 CAT   L $$aZ6SUSP$$b20$$c20040804$$lMAI60$$h0924
004211801 CAT   L $$aZ6SUSP$$b20$$c20040804$$lMAI60$$h0932
004211801 CAT   L $$aZ6SUSP$$b20$$c20040804$$lMAI60$$h0932
004211801 CAT   L $$aZ6SUSP$$b20$$c20040804$$lMAI60$$h0932
004211801 CAT   L $$aZ6SUSP$$b20$$c20041124$$lMAI60$$h1433
004211801 CAT   L $$aZ6SUSP$$b20$$c20041124$$lMAI60$$h1433
004211801 CAT   L $$aZ6SUSP$$b20$$c20050214$$lMAI60$$h1433
004211801 CAT   L $$aZ6SUSP$$b20$$c20050214$$lMAI60$$h1434
004211801 CAT   L $$aZ6SUSP$$b20$$c20050214$$lMAI60$$h1434
004211801 CAT   L $$aZ6SUSP$$b20$$c20050214$$lMAI60$$h1435
004211801 CAT   L $$aZ6SUSP$$b20$$c20050214$$lMAI60$$h1436
004211801 CAT   L $$aZ6SUSP$$b20$$c20050214$$lMAI60$$h1441
004211801 CAT   L $$aZ6SUSP$$b20$$c20050214$$lMAI60$$h1441
004211801 CAT   L $$aZ6SUSP$$b20$$c20050221$$lMAI60$$h0935
004211801 CAT   L $$aZ6SUSP$$b20$$c20050221$$lMAI60$$h0935
004211801 CAT   L $$aZ6SUSP$$b20$$c20050221$$lMAI60$$h0936
004211801 CAT   L $$aD7SUAHS$$b20$$c20050221$$lMAI60$$h0940
004211801 CAT   L $$aD7SUAHS$$b20$$c20050221$$lMAI60$$h0941
004211801 CAT   L $$aD7SUAHS$$b20$$c20050221$$lMAI60$$h0944
004211801 CAT   L $$aD7SUAHS$$b20$$c20050221$$lMAI60$$h0944
004211801 CAT   L $$aD7SUAHS$$b20$$c20050221$$lMAI60$$h0945
004211801 CAT   L $$aD7SUAHS$$b20$$c20050221$$lMAI60$$h0947
004211801 CAT   L $$aZ6SUSP$$b20$$c20050221$$lMAI60$$h1006
004211801 CAT   L $$aZ6SUSL$$b20$$c20050414$$lMAI60$$h1036
004211801 CAT   L $$aZ6SUSL$$b20$$c20050414$$lMAI60$$h1036
004211801 CAT   L $$aZ6SUSL$$b20$$c20050414$$lMAI60$$h1039
004211801 CAT   L $$aZ6SUSL$$b20$$c20050414$$lMAI60$$h1041
004211801 CAT   L $$aZ6SUSL$$b20$$c20050414$$lMAI60$$h1042
004211801 CAT   L $$aZ6SUSL$$b20$$c20050414$$lMAI60$$h1042
004211801 CAT   L $$aZ6SUSL$$b20$$c20050414$$lMAI60$$h1446
004211801 CAT   L $$aZ6SUSL$$b20$$c20050414$$lMAI60$$h1447
004211801 CAT   L $$aZ6SUSL$$b20$$c20050414$$lMAI60$$h1448
004211801 CAT   L $$aZ6SUSL$$b20$$c20050414$$lMAI60$$h1451
004211801 CAT   L $$aZ6SUSL$$b20$$c20050414$$lMAI60$$h1453
004211801 CAT   L $$aZ6SUSL$$b20$$c20050414$$lMAI60$$h1455
004211801 CAT   L $$aZ6SUSL$$b20$$c20050414$$lMAI60$$h1456
004211801 CAT   L $$aZ6SUSL$$b20$$c20050414$$lMAI60$$h1458
004211801 CAT   L $$aZ6SUSL$$b20$$c20050414$$lMAI60$$h1459
004211801 CAT   L $$aZ6SUSL$$b20$$c20050414$$lMAI60$$h1500
004211801 CAT   L $$aZ6SUSL$$b20$$c20050414$$lMAI60$$h1500
004211801 CAT   L $$aZ6SUSL$$b20$$c20050414$$lMAI60$$h1502
004211801 CAT   L $$aZ6SUSL$$b20$$c20050414$$lMAI60$$h1502
004211801 CAT   L $$aZ6SUSL$$b20$$c20050414$$lMAI60$$h1503
004211801 CAT   L $$aZ6SUSL$$b20$$c20050414$$lMAI60$$h1504
004211801 CAT   L $$aZ6SUSL$$b20$$c20050414$$lMAI60$$h1506
004211801 CAT   L $$aZ6SUSL$$b20$$c20050414$$lMAI60$$h1506
004211801 CAT   L $$aZ6SUSL$$b20$$c20050414$$lMAI60$$h1507
004211801 CAT   L $$aZ6SUSL$$b20$$c20050414$$lMAI60$$h1508
004211801 CAT   L $$aZ6SUSL$$b20$$c20050414$$lMAI60$$h1508
004211801 CAT   L $$aZ6SUSL$$b20$$c20050414$$lMAI60$$h1509
004211801 CAT   L $$aZ6SUSL$$b20$$c20050414$$lMAI60$$h1521
004211801 CAT   L $$aZ6SUSL$$b20$$c20050414$$lMAI60$$h1522
004211801 CAT   L $$aZ6SUSL$$b20$$c20050414$$lMAI60$$h1527
004211801 CAT   L $$aZ6SUSL$$b20$$c20050414$$lMAI60$$h1528
004211801 CAT   L $$aZ6SUSL$$b20$$c20050414$$lMAI60$$h1529
004211801 CAT   L $$aZ6SUSL$$b20$$c20050414$$lMAI60$$h1532
004211801 CAT   L $$aZ6SUSL$$b20$$c20050414$$lMAI60$$h1533
004211801 CAT   L $$aZ6SUSL$$b20$$c20050414$$lMAI60$$h1533
004211801 CAT   L $$aZ6SUSL$$b20$$c20050414$$lMAI60$$h1534
004211801 CAT   L $$aZ6SUSL$$b20$$c20050414$$lMAI60$$h1534
004211801 CAT   L $$aZ6SUSL$$b20$$c20050414$$lMAI60$$h1542
004211801 CAT   L $$aZ6SUSL$$b20$$c20050414$$lMAI60$$h1543
004211801 CAT   L $$aZ6SUSL$$b20$$c20050414$$lMAI60$$h1543
004211801 CAT   L $$aZ6SUSL$$b20$$c20050414$$lMAI60$$h1543
004211801 CAT   L $$aZ6SUSL$$b20$$c20050628$$lMAI60$$h1505
004211801 CAT   L $$aZ6SUSL$$b20$$c20050628$$lMAI60$$h1506
004211801 CAT   L $$aZ6SUSL$$b20$$c20050713$$lMAI60$$h1025
004211801 CAT   L $$aZ6SUSL$$b20$$c20050713$$lMAI60$$h1025
004211801 CAT   L $$aZ6SUSP$$b20$$c20060125$$lMAI60$$h1218
004211801 CAT   L $$aZ6SUSP$$b20$$c20070124$$lMAI60$$h0834
004211801 CAT   L $$aZ6SUSP$$b20$$c20080129$$lMAI60$$h1302
004211801 CAT   L $$aZ6SUSP$$b20$$c20080902$$lMAI60$$h1219
004211801 CAT   L $$aXSUMZ$$b20$$c20080916$$lMAI60$$h1507
004211801 CAT   L $$aXSUMZ$$b20$$c20080916$$lMAI60$$h1509
004211801 CAT   L $$aXSUMZ$$b20$$c20080916$$lMAI60$$h1510
004211801 CAT   L $$aXSULD$$b20$$c20081027$$lMAI60$$h1539
004211801 CAT   L $$aXSULD$$b20$$c20090106$$lMAI60$$h1010
004211801 CAT   L $$aZ6SUSP$$b20$$c20091116$$lMAI60$$h1304
004211801 CAT   L $$aZ6SUSP$$b20$$c20100929$$lMAI60$$h1107
004211801 CAT   L $$aZ6SUSP$$b20$$c20111007$$lMAI60$$h1120
004211801 CAT   L $$aXSULD$$b20$$c20120921$$lMAI60$$h0920
004211801 CAT   L $$aXSULD$$b20$$c20120921$$lMAI60$$h0921
004211801 CAT   L $$aZ6SUSP$$b20$$c20121119$$lMAI60$$h1100
004211801 CAT   L $$aXSULD$$b20$$c20140110$$lMAI60$$h1304
004211801 CAT   L $$aXSULD$$b20$$c20140110$$lMAI60$$h1304
004211801 CAT   L $$aXSULD$$b20$$c20140110$$lMAI60$$h1304
004211801 CAT   L $$aZ6SUSP$$b20$$c20140924$$lMAI60$$h1619
004211801 CAT   L $$aZ6SUSP$$b20$$c20140924$$lMAI60$$h1625
004211801 CAT   L $$aZ6SUSP$$b20$$c20140924$$lMAI60$$h1625
004211801 CAT   L $$aZ6SUSP$$b20$$c20150615$$lMAI60$$h1148
004211801 CAT   L $$aXSUAS$$b20$$c20160104$$lMAI60$$h1002
004211801 CAT   L $$aXSUAS$$b20$$c20160104$$lMAI60$$h1003
004211801 CAT   L $$aXSUBDD$$b20$$c20161019$$lMAI60$$h1428
004211801 CAT   L $$aXSUBDD$$b20$$c20161208$$lMAI60$$h1339
004211801 CAT   L $$aXSUBDD$$b20$$c20171030$$lMAI60$$h1459
004211801 CAT   L $$aXSUFC$$b20$$c20180403$$lMAI60$$h1151
004211801 CAT   L $$aXSUFC$$b20$$c20180403$$lMAI60$$h1152
004211801 CAT   L $$aXSUFC$$b20$$c20180403$$lMAI60$$h1152
004211801 CAT   L $$aXSUBDD$$b20$$c20181023$$lMAI60$$h1212
004211801 CAT   L $$aXSUBDD$$b20$$c20190912$$lMAI60$$h0957
004211801 CAT   L $$aXSUCN$$b20$$c20200203$$lMAI60$$h1101
004211801 CAT   L $$aXSUCN$$b20$$c20200203$$lMAI60$$h1101
004211801 CAT   L $$aXSUBDD$$b20$$c20210122$$lMAI60$$h0833
004211801 003   L MdSalS
004211801 004   L $$aSS0001331772
004211801 004   L $$aSS0001331772.10000
004211801 005   L 20021119
004211801 008   L ||||||4p^^^^8^^^1001uueng0021119
004211801 022   L $$a0034-4257
004211801 LKR   L $$aHOL$$lMAI01$$b000429194
004211801 852 2 L $$bSU-SU$$cPER$$t000001
004211801 85321 L $$899$$av.$$u12$$vr$$i(year)$$j(month)$$wm
004211801 853X  L $$899$$910000$$a260$$i2022$$j01$$320220101
004211801 86630 L $$aHARDCOPY: v.3- (1974- )
004212131 OWN   L $$aSUHOL
004212131 FMT   L HO
004212131 LDR   L 00000ny^^^22000003n^4500
004212131 CAT   L $$aCONV$$b20$$c20021125$$lMAI60$$h1812
004212131 CAT   L $$aUTILITY$$b20$$c20030226$$lMAI60$$h1543
004212131 CAT   L $$aZ6SUJKF$$b20$$c20030312$$lMAI60$$h0840
004212131 CAT   L $$aZ6SUJKF$$b20$$c20030312$$lMAI60$$h0841
004212131 CAT   L $$aZ6SUSP$$b20$$c20031002$$lMAI60$$h1357
004212131 CAT   L $$aZ6SUSP$$b20$$c20031002$$lMAI60$$h1357
004212131 CAT   L $$aZ6SUSP$$b20$$c20041025$$lMAI60$$h1211
004212131 CAT   L $$aZ6SUSP$$b20$$c20041025$$lMAI60$$h1214
004212131 CAT   L $$aZ6SUSP$$b20$$c20041025$$lMAI60$$h1215
004212131 CAT   L $$aZ6SUSP$$b20$$c20041025$$lMAI60$$h1215
004212131 CAT   L $$aZ6SUSP$$b20$$c20041025$$lMAI60$$h1221
004212131 CAT   L $$aZ6SUSP$$b20$$c20041025$$lMAI60$$h1222
004212131 CAT   L $$aZ6SUSP$$b20$$c20041025$$lMAI60$$h1222
004212131 CAT   L $$aZ6SUSP$$b20$$c20041025$$lMAI60$$h1222
004212131 CAT   L $$aZ6SUSP$$b20$$c20060113$$lMAI60$$h1158
004212131 CAT   L $$aZ6SUSP$$b20$$c20060926$$lMAI60$$h1406
004212131 CAT   L $$aZ6SUSP$$b20$$c20070809$$lMAI60$$h1121
004212131 CAT   L $$aZ6SUSP$$b20$$c20070814$$lMAI60$$h1039
004212131 CAT   L $$aZ6SUSP$$b20$$c20070814$$lMAI60$$h1040
004212131 CAT   L $$aZ6SUSP$$b20$$c20071003$$lMAI60$$h1012
004212131 CAT   L $$aZ6SUSP$$b20$$c20081104$$lMAI60$$h1353
004212131 CAT   L $$aZ6SUSP$$b20$$c20091007$$lMAI60$$h1222
004212131 CAT   L $$aZ6SUSP$$b20$$c20101027$$lMAI60$$h0932
004212131 CAT   L $$aXSULD$$b20$$c20111010$$lMAI60$$h1216
004212131 CAT   L $$aZ6SUSP$$b20$$c20120806$$lMAI60$$h1051
004212131 CAT   L $$aZ6SUSP$$b20$$c20131121$$lMAI60$$h1605
004212131 CAT   L $$aZ6SUSP$$b20$$c20141015$$lMAI60$$h1144
004212131 CAT   L $$aXSUMZ$$b20$$c20150326$$lMAI60$$h1453
004212131 CAT   L $$aXSUMZ$$b20$$c20150326$$lMAI60$$h1453
004212131 CAT   L $$aZ6SUACQ2$$b20$$c20151005$$lMAI60$$h1126
004212131 CAT   L $$aXSUBDD$$b20$$c20160915$$lMAI60$$h1550
004212131 CAT   L $$aXSUBDD$$b20$$c20171006$$lMAI60$$h1001
004212131 CAT   L $$aXSUBDD$$b20$$c20181030$$lMAI60$$h0924
004212131 CAT   L $$aXSUBDD$$b20$$c20200212$$lMAI60$$h0938
004212131 CAT   L $$aXSUBDD$$b20$$c20210122$$lMAI60$$h0834
004212131 003   L MdSalS
004212131 004   L $$aSS0001343464
004212131 004   L $$aSS0001343464.10000
004212131 005   L 20020104
004212131 008   L ||||||4p^^^^8^^^1001uueng0020104
004212131 022   L $$a0306-4603
004212131 LKR   L $$aHOL$$lMAI01$$b000431851
004212131 852   L $$bSU-SU$$cPER$$t000001
004212131 853   L $$899$$av.$$u12$$vc$$i(year)$$j(month)$$wm
004212131 853X  L $$899$$910000$$a124$$i2022$$j01$$320220131
004212131 86630 L $$aHARDCOPY: v.1- (1975- )
004215028 OWN   L $$aSUHOL
004215028 FMT   L HO
004215028 LDR   L 00000ny^^^22000003n^4500
004215028 CAT   L $$aCONV$$b20$$c20021125$$lMAI60$$h1812
004215028 CAT   L $$aUTILITY$$b20$$c20030226$$lMAI60$$h1549
004215028 CAT   L $$aZ6SUSP$$b20$$c20040120$$lMAI60$$h1349
004215028 CAT   L $$aZ6SUSP$$b20$$c20040120$$lMAI60$$h1349
004215028 CAT   L $$aZ6SUSP$$b20$$c20040630$$lMAI60$$h1159
004215028 CAT   L $$aZ6SUSP$$b20$$c20040630$$lMAI60$$h1200
004215028 CAT   L $$aZ6SUSP$$b20$$c20041108$$lMAI60$$h1206
004215028 CAT   L $$aZ6SUSP$$b20$$c20041108$$lMAI60$$h1230
004215028 CAT   L $$aZ6SUSP$$b20$$c20041111$$lMAI60$$h1239
004215028 CAT   L $$aZ6SUSP$$b20$$c20041215$$lMAI60$$h1120
004215028 CAT   L $$aZ6SUSP$$b20$$c20050615$$lMAI60$$h1122
004215028 CAT   L $$aZ6SUSP$$b20$$c20060623$$lMAI60$$h0944
004215028 CAT   L $$aXSUMZ$$b20$$c20070806$$lMAI60$$h1058
004215028 CAT   L $$aZ6SUSP$$b20$$c20080702$$lMAI60$$h1006
004215028 CAT   L $$aXSULD$$b20$$c20090619$$lMAI60$$h1137
004215028 CAT   L $$aXSULD$$b20$$c20100614$$lMAI60$$h1223
004215028 CAT   L $$aZ6SUSP$$b20$$c20110614$$lMAI60$$h1100
004215028 CAT   L $$aZ6SUSP$$b20$$c20120625$$lMAI60$$h1122
004215028 CAT   L $$aZ6SUSP$$b20$$c20130618$$lMAI60$$h1236
004215028 CAT   L $$aXSULD$$b20$$c20140708$$lMAI60$$h1357
004215028 CAT   L $$aZ6SUSP$$b20$$c20150624$$lMAI60$$h1230
004215028 CAT   L $$aXSUFC$$b20$$c20160706$$lMAI60$$h1037
004215028 CAT   L $$aXSUBDD$$b20$$c20170621$$lMAI60$$h1458
004215028 CAT   L $$aZ5SUNK$$b20$$c20180709$$lMAI60$$h1134
004215028 CAT   L $$aXSUMZ$$b20$$c20180920$$lMAI60$$h1701
004215028 CAT   L $$aXSUBDD$$b20$$c20181218$$lMAI60$$h1329
004215028 CAT   L $$aXSUBDD$$b20$$c20200306$$lMAI60$$h1530
004215028 CAT   L $$aXSUBDD$$b20$$c20210122$$lMAI60$$h1441
004215028 003   L MdSalS
004215028 004   L $$aSS0001480139
004215028 004   L $$aSS0001480139.10000
004215028 005   L 20020702
004215028 008   L ||||||4p^^^^8^^^2001uueng0020702
004215028 022   L $$a0002-9262
004215028 LKR   L $$aHOL$$lMAI01$$b000461101
004215028 852   L $$bSU-SU$$cPER$$t000001
004215028 853   L $$899$$av.$$bno.$$u12$$vr$$i(year)$$j(month)$$wm
004215028 853X  L $$899$$910000$$a191$$b1$$i2022$$j01$$320220101
004215028 86630 L $$aHARDCOPY:v. 139- (1994- )
004267670 OWN   L $$aSUHOL
004267670 FMT   L HO
004267670 LDR   L 00000ny^^^22000003n^4500
004267670 CAT   L $$aCONV$$b20$$c20021125$$lMAI60$$h1815
004267670 CAT   L $$aUTILITY$$b20$$c20030227$$lMAI60$$h0824
004267670 CAT   L $$aZ6SUSP$$b20$$c20031211$$lMAI60$$h1318
004267670 CAT   L $$aZ6SUSP$$b20$$c20031211$$lMAI60$$h1319
004267670 CAT   L $$aZ6SUSP$$b20$$c20050509$$lMAI60$$h1535
004267670 CAT   L $$aZ6SUSL$$b20$$c20050714$$lMAI60$$h1556
004267670 CAT   L $$aZ6SUSL$$b20$$c20050714$$lMAI60$$h1608
004267670 CAT   L $$aZ6SUSL$$b20$$c20051129$$lMAI60$$h1744
004267670 CAT   L $$aZ6SUSP$$b20$$c20060614$$lMAI60$$h1053
004267670 CAT   L $$aZ6SUSP$$b20$$c20060614$$lMAI60$$h1054
004267670 CAT   L $$aZ6SUSP$$b20$$c20060614$$lMAI60$$h1055
004267670 CAT   L $$aZ6SUSP$$b20$$c20060614$$lMAI60$$h1055
004267670 CAT   L $$aZ6SUSP$$b20$$c20060614$$lMAI60$$h1103
004267670 CAT   L $$aZ6SUSP$$b20$$c20070404$$lMAI60$$h1131
004267670 CAT   L $$aZ6SUSP$$b20$$c20070404$$lMAI60$$h1143
004267670 CAT   L $$aZ6SUSP$$b20$$c20070404$$lMAI60$$h1144
004267670 CAT   L $$aZ6SUSP$$b20$$c20080103$$lMAI60$$h1419
004267670 CAT   L $$aXSUMZ$$b20$$c20080617$$lMAI60$$h1551
004267670 CAT   L $$aZ6SUSP$$b20$$c20090126$$lMAI60$$h1127
004267670 CAT   L $$aZ6SUSP$$b20$$c20091215$$lMAI60$$h1128
004267670 CAT   L $$aZ6SUSP$$b20$$c20101203$$lMAI60$$h1152
004267670 CAT   L $$aZ6SUSP$$b20$$c20110815$$lMAI60$$h1425
004267670 CAT   L $$aZ6SUSP$$b20$$c20121204$$lMAI60$$h1301
004267670 CAT   L $$aZ6SUSP$$b20$$c20131206$$lMAI60$$h1406
004267670 CAT   L $$aZ6SUSP$$b20$$c20141111$$lMAI60$$h1234
004267670 CAT   L $$aXSUAS$$b20$$c20151118$$lMAI60$$h1144
004267670 CAT   L $$aXSUBDD$$b20$$c20161115$$lMAI60$$h1318
004267670 CAT   L $$aXSUBDD$$b20$$c20171208$$lMAI60$$h1310
004267670 CAT   L $$aXSUBDD$$b20$$c20181029$$lMAI60$$h0955
004267670 CAT   L $$aXSUBDD$$b20$$c20191204$$lMAI60$$h0933
004267670 CAT   L $$aXSUBDD$$b20$$c20210122$$lMAI60$$h1435
004267670 003   L MdSalS
004267670 004   L $$aSS0009495904
004267670 004   L $$aSS0009495904.10000
004267670 005   L 20020805
004267670 008   L ||||||4p^^^^8^^^1001uueng0020805
004267670 022   L $$a0738-0151
004267670 LKR   L $$aHOL$$lMAI01$$b001157541
004267670 852   L $$bSU-SU$$cPER$$t000001
004267670 853   L $$899$$av.$$bno.$$u6$$vr$$i(year)$$j(month)$$wb
004267670 853X  L $$899$$910000$$a39$$b1$$i2022$$j02$$320220401
004267670 86630 L $$aHARDCOPY: v.19:no.2- (2002:Apr.- )
004272513 OWN   L $$aSUHOL
004272513 FMT   L HO
004272513 LDR   L 00000ny^^^22000003n^4500
004272513 CAT   L $$aCONV$$b20$$c20021125$$lMAI60$$h1815
004272513 CAT   L $$aUTILITY$$b20$$c20030227$$lMAI60$$h0829
004272513 CAT   L $$aZ6SUSP$$b20$$c20031217$$lMAI60$$h1250
004272513 CAT   L $$aZ6SUSP$$b20$$c20031217$$lMAI60$$h1250
004272513 CAT   L $$aZ6SUSP$$b20$$c20031217$$lMAI60$$h1250
004272513 CAT   L $$aZ6SUSP$$b20$$c20031217$$lMAI60$$h1250
004272513 CAT   L $$aZ6SUSP$$b20$$c20040130$$lMAI60$$h1314
004272513 CAT   L $$aZ6SUSP$$b20$$c20040130$$lMAI60$$h1315
004272513 CAT   L $$aZ6SUSP$$b20$$c20040130$$lMAI60$$h1315
004272513 CAT   L $$aZ6SUSP$$b20$$c20040721$$lMAI60$$h1201
004272513 CAT   L $$aZ6SUSP$$b20$$c20040721$$lMAI60$$h1201
004272513 CAT   L $$aZ6SUSP$$b20$$c20040721$$lMAI60$$h1201
004272513 CAT   L $$aZ6SUSP$$b20$$c20050125$$lMAI60$$h1306
004272513 CAT   L $$aZ6SUSP$$b20$$c20050125$$lMAI60$$h1307
004272513 CAT   L $$aZ6SUSP$$b20$$c20050412$$lMAI60$$h1522
004272513 CAT   L $$aZ6SUSP$$b20$$c20050412$$lMAI60$$h1523
004272513 CAT   L $$aZ6SUSP$$b20$$c20050412$$lMAI60$$h1524
004272513 CAT   L $$aZ6SUSL$$b20$$c20050503$$lMAI60$$h1327
004272513 CAT   L $$aZ6SUSL$$b20$$c20050503$$lMAI60$$h1327
004272513 CAT   L $$aZ6SUSP$$b20$$c20060118$$lMAI60$$h0834
004272513 CAT   L $$aZ6SUSP$$b20$$c20070122$$lMAI60$$h1158
004272513 CAT   L $$aZ6SUSP$$b20$$c20080129$$lMAI60$$h1256
004272513 CAT   L $$aXSULD$$b20$$c20081125$$lMAI60$$h1300
004272513 CAT   L $$aZ6SUSP$$b20$$c20091203$$lMAI60$$h1241
004272513 CAT   L $$aZ6SUSP$$b20$$c20100901$$lMAI60$$h1422
004272513 CAT   L $$aZ6SUSP$$b20$$c20110909$$lMAI60$$h1245
004272513 CAT   L $$aZ6SUSP$$b20$$c20121128$$lMAI60$$h1319
004272513 CAT   L $$aZ6SUSP$$b20$$c20130813$$lMAI60$$h1145
004272513 CAT   L $$aZ6SUSP$$b20$$c20141210$$lMAI60$$h1456
004272513 CAT   L $$aZ6SUACQ2$$b20$$c20160111$$lMAI60$$h1052
004272513 CAT   L $$aXSUBDD$$b20$$c20170111$$lMAI60$$h1123
004272513 CAT   L $$aXSUBDD$$b20$$c20180119$$lMAI60$$h1408
004272513 CAT   L $$aXSUBDD$$b20$$c20180507$$lMAI60$$h1201
004272513 CAT   L $$aXSUBDD$$b20$$c20190308$$lMAI60$$h1223
004272513 CAT   L $$aXSUBDD$$b20$$c20210122$$lMAI60$$h0830
004272513 003   L MdSalS
004272513 004   L $$aSS0011148651
004272513 004   L $$aSS0011148651.10000
004272513 005   L 20020918
004272513 008   L ||||||4p^^^^8^^^1001uueng0020918
004272513 022   L $$a0749-5978
004272513 LKR   L $$aHOL$$lMAI01$$b001259144
004272513 852   L $$bSU-SU$$cPER$$t000001
004272513 853   L $$899$$av.$$bno.$$u2$$vr$$i(year)$$j(month)$$wb
004272513 853X  L $$899$$910000$$a147$$b1$$i2022$$j01$$320220201
004272513 86630 L $$aHARDCOPY: v.35- (1985- )
004672255 FMT   L HO
004672255 LDR   L ^^^^^nx^^a22^^^^^1i^4500
004672255 CAT   L $$c20021127$$lMAI60$$h1720
004672255 CAT   L $$c20021127$$lMAI60$$h1720
004672255 CAT   L $$aD5FSLAH$$b20$$c20210122$$lMAI60$$h1259
004672255 DEL   L $$aY
004672259 FMT   L HO
004672259 LDR   L ^^^^^nx^^a22^^^^^1i^4500
004672259 CAT   L $$c20021127$$lMAI60$$h1720
004672259 CAT   L $$c20021127$$lMAI60$$h1720
004672259 CAT   L $$aD5FSLAH$$b20$$c20210122$$lMAI60$$h1304
004672259 DEL   L $$aY
004672262 FMT   L HO
004672262 LDR   L ^^^^^nx^^a22^^^^^1i^4500
004672262 CAT   L $$c20021127$$lMAI60$$h1720
004672262 CAT   L $$c20021127$$lMAI60$$h1720
004672262 CAT   L $$aD5FSLAH$$b20$$c20210122$$lMAI60$$h1333
004672262 DEL   L $$aY
004672264 FMT   L HO
004672264 LDR   L ^^^^^nx^^a22^^^^^1i^4500
004672264 CAT   L $$c20021127$$lMAI60$$h1720
004672264 CAT   L $$c20021127$$lMAI60$$h1720
004672264 CAT   L $$aD5FSLAH$$b20$$c20210122$$lMAI60$$h1402
004672264 DEL   L $$aY
004722162 FMT   L HO
004722162 LDR   L ^^^^^nx^^a22^^^^^1i^4500
004722162 CAT   L $$c20021127$$lMAI60$$h1908
004722162 CAT   L $$c20021127$$lMAI60$$h1908
004722162 CAT   L $$aD4FSRAL$$b20$$c20210122$$lMAI60$$h0955
004722162 DEL   L $$aY
004722163 FMT   L HO
004722163 LDR   L ^^^^^nx^^a22^^^^^1i^4500
004722163 CAT   L $$c20021127$$lMAI60$$h1908
004722163 CAT   L $$c20021127$$lMAI60$$h1908
004722163 CAT   L $$aD4FSRAL$$b20$$c20210122$$lMAI60$$h0956
004722163 DEL   L $$aY
004722169 FMT   L HO
004722169 LDR   L ^^^^^nx^^a22^^^^^1i^4500
004722169 CAT   L $$c20021127$$lMAI60$$h1908
004722169 CAT   L $$c20021127$$lMAI60$$h1908
004722169 CAT   L $$aD4FSRAL$$b20$$c20210122$$lMAI60$$h1001
004722169 DEL   L $$aY
004722171 FMT   L HO
004722171 LDR   L ^^^^^nx^^a22^^^^^1i^4500
004722171 CAT   L $$c20021127$$lMAI60$$h1908
004722171 CAT   L $$c20021127$$lMAI60$$h1908
004722171 CAT   L $$aD4FSRAL$$b20$$c20210122$$lMAI60$$h1002
004722171 DEL   L $$aY
004722176 FMT   L HO
004722176 LDR   L ^^^^^nx^^a22^^^^^1i^4500
004722176 CAT   L $$c20021127$$lMAI60$$h1908
004722176 CAT   L $$c20021127$$lMAI60$$h1908
004722176 CAT   L $$aD4FSRAL$$b20$$c20210122$$lMAI60$$h1005
004722176 DEL   L $$aY
004722177 FMT   L HO
004722177 LDR   L ^^^^^nx^^a22^^^^^1i^4500
004722177 CAT   L $$c20021127$$lMAI60$$h1908
004722177 CAT   L $$c20021127$$lMAI60$$h1908
004722177 CAT   L $$aD4FSRAL$$b20$$c20210122$$lMAI60$$h1005
004722177 DEL   L $$aY
004722181 FMT   L HO
004722181 LDR   L ^^^^^nx^^a22^^^^^1i^4500
004722181 CAT   L $$c20021127$$lMAI60$$h1908
004722181 CAT   L $$c20021127$$lMAI60$$h1908
004722181 CAT   L $$aD4FSRAL$$b20$$c20210122$$lMAI60$$h1006
004722181 DEL   L $$aY
004722185 FMT   L HO
004722185 LDR   L ^^^^^nx^^a22^^^^^1i^4500
004722185 CAT   L $$c20021127$$lMAI60$$h1908
004722185 CAT   L $$c20021127$$lMAI60$$h1908
004722185 CAT   L $$aD4FSRAL$$b20$$c20210122$$lMAI60$$h1007
004722185 DEL   L $$aY
004722190 FMT   L HO
004722190 LDR   L ^^^^^nx^^a22^^^^^1i^4500
004722190 CAT   L $$c20021127$$lMAI60$$h1908
004722190 CAT   L $$c20021127$$lMAI60$$h1908
004722190 CAT   L $$aD4FSRAL$$b20$$c20210122$$lMAI60$$h1008
004722190 DEL   L $$aY
004722193 FMT   L HO
004722193 LDR   L ^^^^^nx^^a22^^^^^1i^4500
004722193 CAT   L $$c20021127$$lMAI60$$h1908
004722193 CAT   L $$c20021127$$lMAI60$$h1908
004722193 CAT   L $$aD4FSRAL$$b20$$c20210122$$lMAI60$$h1009
004722193 DEL   L $$aY
004722196 FMT   L HO
004722196 LDR   L ^^^^^nx^^a22^^^^^1i^4500
004722196 CAT   L $$c20021127$$lMAI60$$h1908
004722196 CAT   L $$c20021127$$lMAI60$$h1908
004722196 CAT   L $$aD4FSRAL$$b20$$c20210122$$lMAI60$$h1009
004722196 DEL   L $$aY
004722203 FMT   L HO
004722203 LDR   L ^^^^^nx^^a22^^^^^1i^4500
004722203 CAT   L $$c20021127$$lMAI60$$h1908
004722203 CAT   L $$c20021127$$lMAI60$$h1908
004722203 CAT   L $$aD4FSRAL$$b20$$c20210122$$lMAI60$$h1010
004722203 DEL   L $$aY
004722207 FMT   L HO
004722207 LDR   L ^^^^^nx^^a22^^^^^1i^4500
004722207 CAT   L $$c20021127$$lMAI60$$h1908
004722207 CAT   L $$c20021127$$lMAI60$$h1908
004722207 CAT   L $$aD4FSRAL$$b20$$c20210122$$lMAI60$$h1011
004722207 DEL   L $$aY
004722214 FMT   L HO
004722214 LDR   L ^^^^^nx^^a22^^^^^1i^4500
004722214 CAT   L $$c20021127$$lMAI60$$h1908
004722214 CAT   L $$c20021127$$lMAI60$$h1908
004722214 CAT   L $$aD4FSRAL$$b20$$c20210122$$lMAI60$$h1013
004722214 DEL   L $$aY
004722215 FMT   L HO
004722215 LDR   L ^^^^^nx^^a22^^^^^1i^4500
004722215 CAT   L $$c20021127$$lMAI60$$h1908
004722215 CAT   L $$c20021127$$lMAI60$$h1908
004722215 CAT   L $$aD4FSRAL$$b20$$c20210122$$lMAI60$$h1014
004722215 DEL   L $$aY
004722217 FMT   L HO
004722217 LDR   L ^^^^^nx^^a22^^^^^1i^4500
004722217 CAT   L $$c20021127$$lMAI60$$h1908
004722217 CAT   L $$c20021127$$lMAI60$$h1908
004722217 CAT   L $$aD4FSRAL$$b20$$c20210122$$lMAI60$$h1014
004722217 DEL   L $$aY
004722224 FMT   L HO
004722224 LDR   L ^^^^^nx^^a22^^^^^1i^4500
004722224 CAT   L $$c20021127$$lMAI60$$h1908
004722224 CAT   L $$c20021127$$lMAI60$$h1908
004722224 CAT   L $$aD4FSRAL$$b20$$c20210122$$lMAI60$$h1015
004722224 DEL   L $$aY
004722227 FMT   L HO
004722227 LDR   L ^^^^^nx^^a22^^^^^1i^4500
004722227 CAT   L $$c20021127$$lMAI60$$h1908
004722227 CAT   L $$c20021127$$lMAI60$$h1908
004722227 CAT   L $$aD4FSRAL$$b20$$c20210122$$lMAI60$$h1016
004722227 DEL   L $$aY
005728582 OWN   L $$aBCHOL
005728582 FMT   L HO
005728582 LDR   L ^^^^^nx^^a22^^^^^1i^4500
005728582 CAT   L $$aD5BCPXU$$b20$$c20040615$$lMAI60$$h1336
005728582 CAT   L $$aD5BCPXU$$b20$$c20040615$$lMAI60$$h1337
005728582 CAT   L $$aZ5ABCLAW$$b20$$c20040908$$lMAI60$$h0948
005728582 CAT   L $$aZ5ABCLAW$$b20$$c20040908$$lMAI60$$h0951
005728582 CAT   L $$aZ5ABCLAW$$b20$$c20040908$$lMAI60$$h0953
005728582 CAT   L $$aZ5ABCLAW$$b20$$c20040908$$lMAI60$$h0956
005728582 CAT   L $$aZ5ABCLAW$$b20$$c20040908$$lMAI60$$h0957
005728582 CAT   L $$aZ5ABCLAW$$b20$$c20040908$$lMAI60$$h1001
005728582 CAT   L $$aZ5ABCLAW$$b20$$c20040908$$lMAI60$$h1002
005728582 CAT   L $$aZ5ABCLAW$$b20$$c20041118$$lMAI60$$h1011
005728582 CAT   L $$aZ5ABCLAW$$b20$$c20041118$$lMAI60$$h1016
005728582 CAT   L $$aZ6BCJET$$b20$$c20041129$$lMAI60$$h1245
005728582 CAT   L $$aZ5ABCLAW$$b20$$c20051110$$lMAI60$$h0948
005728582 CAT   L $$aZ5ABCLAW$$b20$$c20051110$$lMAI60$$h0949
005728582 CAT   L $$aZ5ABCLAW$$b20$$c20051110$$lMAI60$$h0949
005728582 CAT   L $$aZ5ABCLAW$$b20$$c20061018$$lMAI60$$h0939
005728582 CAT   L $$aZ5ABCLAW$$b20$$c20061018$$lMAI60$$h0940
005728582 CAT   L $$aZ4BBCMER$$b20$$c20071218$$lMAI60$$h1534
005728582 CAT   L $$aZ4BBCMER$$b20$$c20080317$$lMAI60$$h1528
005728582 CAT   L $$aZ5ABCLAW$$b20$$c20091123$$lMAI60$$h1102
005728582 CAT   L $$aZ5ABCLAW$$b20$$c20091123$$lMAI60$$h1103
005728582 CAT   L $$aZ5ABCLAW$$b20$$c20100115$$lMAI60$$h1143
005728582 CAT   L $$aZ4BBCMER$$b20$$c20100119$$lMAI60$$h1114
005728582 CAT   L $$aZ4BBCMER$$b20$$c20100119$$lMAI60$$h1146
005728582 CAT   L $$aZ4BBCMER$$b20$$c20110104$$lMAI60$$h2042
005728582 CAT   L $$aZ5ABCLAW$$b20$$c20110308$$lMAI60$$h1902
005728582 CAT   L $$aZ4BBCMER$$b20$$c20120117$$lMAI60$$h1708
005728582 CAT   L $$aZ5ABCLAW$$b20$$c20130115$$lMAI60$$h1409
005728582 CAT   L $$aZ5ABCLAW$$b20$$c20140128$$lMAI60$$h1451
005728582 CAT   L $$aZ5ABCLAW$$b20$$c20140205$$lMAI60$$h1302
005728582 CAT   L $$aZ5ABCLAW$$b20$$c20140709$$lMAI60$$h1731
005728582 CAT   L $$aZ5ABCLD$$b20$$c20150323$$lMAI60$$h1624
005728582 CAT   L $$aZ5ABCLD$$b20$$c20160129$$lMAI60$$h1247
005728582 CAT   L $$aZ5ABCLAW$$b20$$c20170110$$lMAI60$$h1404
005728582 CAT   L $$aZ5ABCLAW$$b20$$c20180118$$lMAI60$$h1427
005728582 CAT   L $$aZ5ABCLAW$$b20$$c20190109$$lMAI60$$h1257
005728582 CAT   L $$aZ4ABCEB$$b20$$c20200108$$lMAI60$$h1329
005728582 CAT   L $$aZ5ABCLAW$$b20$$c20210122$$lMAI60$$h1059
005728582 003   L MdU-BC
005728582 007   L ta
005728582 008   L 0406152u^^^^8^^^4001uueng0000000
005728582 022   L $$a0883-8542
005728582 LKR   L $$aHOL$$lMAI01$$b003136826
005728582 852 0 L $$bBC-BC$$cSSTCK
005728582 853   L $$899$$av.$$bno.$$u6$$vr$$i(year)$$j(month)$$wb
005728582 853X  L $$899$$900001$$a38$$b1$$i2022$$j01$$320220101
005728582 86631 L $$av.20(2004)-$$xHoldings updated 7/11/14 LW
005769961 OWN   L $$aHSHOL
005769961 FMT   L HO
005769961 LDR   L ^^^^^ny^^a22^^^^^1n^4500
005769961 CAT   L $$aD7HSWAB$$b20$$c20040909$$lMAI60$$h0928
005769961 CAT   L $$aD7HSWAB$$b20$$c20040909$$lMAI60$$h0929
005769961 CAT   L $$aD7HSMDB$$b20$$c20210122$$lMAI60$$h0930
005769961 CAT   L $$aD7HSMDB$$b20$$c20210122$$lMAI60$$h0932
005769961 007   L cr^cnu
005769961 008   L 0409092p^^^^8^^^1001baeng0000000
005769961 LKR   L $$aHOL$$lMAI01$$b003159208
005769961 852   L $$bHS-HS$$cONLNE
005769961 866 0 L $$80$$zClick on Find It.$$xVia Elsevier ScienceDirect.
008216636 FMT   L HO
008216636 LDR   L ^^^^^nx^^a22^^^^^1i^4500
008216636 CAT   L $$aZ6BSMCG$$b20$$c20120402$$lMAI60$$h1238
008216636 CAT   L $$aZ6BSMCG$$b20$$c20120402$$lMAI60$$h1238
008216636 CAT   L $$aZ6BSMCG$$b20$$c20120402$$lMAI60$$h1238
008216636 CAT   L $$aZ6BSMCG$$b20$$c20120402$$lMAI60$$h1240
008216636 CAT   L $$aZ6BSMCG$$b20$$c20171121$$lMAI60$$h1017
008216636 CAT   L $$aZ6BSMCG$$b20$$c20210122$$lMAI60$$h0924
008216636 DEL   L $$aY
008216647 FMT   L HO
008216647 LDR   L ^^^^^nx^^a22^^^^^1i^4500
008216647 CAT   L $$aZ6BSMCG$$b20$$c20120402$$lMAI60$$h1253
008216647 CAT   L $$aZ6BSMCG$$b20$$c20120402$$lMAI60$$h1253
008216647 CAT   L $$aZ6BSMCG$$b20$$c20120402$$lMAI60$$h1253
008216647 CAT   L $$aZ6BSMCG$$b20$$c20120402$$lMAI60$$h1254
008216647 CAT   L $$aZ6BSMCG$$b20$$c20171121$$lMAI60$$h1053
008216647 CAT   L $$aZ6BSMCG$$b20$$c20210122$$lMAI60$$h0939
008216647 DEL   L $$aY
008216691 FMT   L HO
008216691 LDR   L ^^^^^nx^^a22^^^^^1i^4500
008216691 CAT   L $$aZ6BSMCG$$b20$$c20120402$$lMAI60$$h1402
008216691 CAT   L $$aZ6BSMCG$$b20$$c20120402$$lMAI60$$h1402
008216691 CAT   L $$aZ6BSMCG$$b20$$c20120402$$lMAI60$$h1402
008216691 CAT   L $$aZ6BSMCG$$b20$$c20120402$$lMAI60$$h1403
008216691 CAT   L $$aZ6BSMCG$$b20$$c20140925$$lMAI60$$h1626
008216691 CAT   L $$aZ6BSMCG$$b20$$c20140925$$lMAI60$$h1631
008216691 CAT   L $$aZ6BSMCG$$b20$$c20140925$$lMAI60$$h1636
008216691 CAT   L $$aZ6BSMCG$$b20$$c20190816$$lMAI60$$h1326
008216691 CAT   L $$aZ6BSMCG$$b20$$c20210122$$lMAI60$$h1148
008216691 DEL   L $$aY
008299224 OWN   L $$aBCHOL
008299224 FMT   L HO
008299224 LDR   L ^^^^^nx^^a22^^^^^1i^4500
008299224 CAT   L $$aD7BCVLS$$b20$$c20120620$$lMAI60$$h1629
008299224 CAT   L $$aD7BCVLS$$b20$$c20120620$$lMAI60$$h1633
008299224 CAT   L $$aD7BCVLS$$b20$$c20120620$$lMAI60$$h1633
008299224 CAT   L $$aD4BCLAW$$b20$$c20120620$$lMAI60$$h1821
008299224 CAT   L $$aZ5ABCLAW$$b20$$c20120620$$lMAI60$$h1827
008299224 CAT   L $$aZ5ABCLAW$$b20$$c20120620$$lMAI60$$h1827
008299224 CAT   L $$aZ5ABCLAW$$b20$$c20120620$$lMAI60$$h1827
008299224 CAT   L $$aZ5ABCLAW$$b20$$c20130118$$lMAI60$$h1154
008299224 CAT   L $$aZ5ABCLAW$$b20$$c20131203$$lMAI60$$h1113
008299224 CAT   L $$aZ5ABCLAW$$b20$$c20150414$$lMAI60$$h1032
008299224 CAT   L $$aZ5ABCLAW$$b20$$c20150929$$lMAI60$$h1159
008299224 CAT   L $$aZ5ABCLAW$$b20$$c20160603$$lMAI60$$h1517
008299224 CAT   L $$aZ5ABCLAW$$b20$$c20170110$$lMAI60$$h1612
008299224 CAT   L $$aZ5ABCLAW$$b20$$c20180425$$lMAI60$$h1447
008299224 CAT   L $$aZ5ABCLAW$$b20$$c20190117$$lMAI60$$h1108
008299224 CAT   L $$aZ5ABCLAW$$b20$$c20200204$$lMAI60$$h1554
008299224 CAT   L $$aZ5ABCLAW$$b20$$c20210122$$lMAI60$$h1155
008299224 007   L ta
008299224 008   L 1206202u^^^^8^^^4001uueng0000000
008299224 022   L $$a0023-3919
008299224 LKR   L $$aHOL$$lMAI01$$b004124592
008299224 852 0 L $$bBC-BC$$cSSTCK
008299224 853   L $$899$$av.$$bno.$$u4$$vr$$i(year)$$j(season)$$wq
008299224 853X  L $$899$$900001$$a53$$b1$$i2022$$j21$$320220301
008299224 86631 L $$av.43(2012)-v.44(2013),v.45:no.1-2(2014:spring-summer),v.46(2015)-$$xHoldings updated 9/29/15 LW
008503434 OWN   L $$aBSHOL
008503434 FMT   L HO
008503434 LDR   L ^^^^^nx^^a22^^^^^1i^4500
008503434 CAT   L $$aZ6BSMCG$$b20$$c20130114$$lMAI60$$h1245
008503434 CAT   L $$aZ6BSMCG$$b20$$c20130114$$lMAI60$$h1245
008503434 CAT   L $$aZ6BSMCG$$b20$$c20130114$$lMAI60$$h1245
008503434 CAT   L $$aZ6BSMCG$$b20$$c20130114$$lMAI60$$h1252
008503434 CAT   L $$aZ6BSMCG$$b20$$c20130114$$lMAI60$$h1319
008503434 CAT   L $$aZ6BSMCG$$b20$$c20130114$$lMAI60$$h1322
008503434 CAT   L $$aZ6BSMCG$$b20$$c20130114$$lMAI60$$h1327
008503434 CAT   L $$aZ6BSMCG$$b20$$c20130131$$lMAI60$$h1044
008503434 CAT   L $$aZ6BSMCG$$b20$$c20130131$$lMAI60$$h1054
008503434 CAT   L $$aZ6BSMCG$$b20$$c20130131$$lMAI60$$h1100
008503434 CAT   L $$aZ6BSMCG$$b20$$c20130204$$lMAI60$$h1004
008503434 CAT   L $$aZ6BSMCG$$b20$$c20130204$$lMAI60$$h1004
008503434 CAT   L $$aZ5BSER$$b20$$c20140107$$lMAI60$$h1809
008503434 CAT   L $$aZ6BSMCG$$b20$$c20150112$$lMAI60$$h1120
008503434 CAT   L $$aZ6BSMCG$$b20$$c20150112$$lMAI60$$h1120
008503434 CAT   L $$aZ6BSMCG$$b20$$c20151106$$lMAI60$$h1030
008503434 CAT   L $$aZ6BSMCG$$b20$$c20151106$$lMAI60$$h1030
008503434 CAT   L $$aZ6BSMCG$$b20$$c20170109$$lMAI60$$h0936
008503434 CAT   L $$aZ6BSMCG$$b20$$c20170523$$lMAI60$$h1629
008503434 CAT   L $$aZ6BSMCG$$b20$$c20170801$$lMAI60$$h1141
008503434 CAT   L $$aZ6BSMCG$$b20$$c20171106$$lMAI60$$h1703
008503434 CAT   L $$aZ6BSMCG$$b20$$c20171106$$lMAI60$$h1703
008503434 CAT   L $$aZ6BSMCG$$b20$$c20181108$$lMAI60$$h1152
008503434 CAT   L $$aZ6BSMCG$$b20$$c20191104$$lMAI60$$h0946
008503434 CAT   L $$aZ6BSMCG$$b20$$c20210122$$lMAI60$$h1516
008503434 CAT   L $$aZ6BSMCG$$b20$$c20210122$$lMAI60$$h1516
008503434 CAT   L $$aZ6BSMCG$$b20$$c20210122$$lMAI60$$h1516
008503434 003   L MdBo
008503434 008   L 1301142u^^^^8^^^4001uueng0000000
008503434 022   L $$a0199-5197
008503434 LKR   L $$aHOL$$lMAI01$$b003974509
008503434 8520  L $$bBS-BS$$cCLREF$$t000001
008503434 853   L $$899$$av.$$bno.$$u9$$vr$$i(year)$$j(month)$$ypm01,02,03,04,05,07,09,10,11$$w9
008503434 853X  L $$899$$900003$$a43$$b1$$i2022$$j01$$320220101
008503434 85332 L $$81
008503434 86630 L $$av.34-41(JAN.2013-DEC.2020), v.42#1- (Jan.2021- )
008528747 OWN   L $$aBSHOL
008528747 FMT   L HO
008528747 LDR   L ^^^^^nx^^a22^^^^^1i^4500
008528747 CAT   L $$aZ6BSMCG$$b20$$c20130228$$lMAI60$$h1024
008528747 CAT   L $$aZ6BSMCG$$b20$$c20130228$$lMAI60$$h1024
008528747 CAT   L $$aZ6BSMCG$$b20$$c20130228$$lMAI60$$h1024
008528747 CAT   L $$aZ6BSMCG$$b20$$c20130228$$lMAI60$$h1034
008528747 CAT   L $$aZ6BSMCG$$b20$$c20130228$$lMAI60$$h1034
008528747 CAT   L $$aZ6BSMCG$$b20$$c20140110$$lMAI60$$h1543
008528747 CAT   L $$aZ6BSMCG$$b20$$c20150112$$lMAI60$$h1201
008528747 CAT   L $$aZ6BSMCG$$b20$$c20151102$$lMAI60$$h0804
008528747 CAT   L $$aZ6BSMCG$$b20$$c20161028$$lMAI60$$h0847
008528747 CAT   L $$aZ6BSMCG$$b20$$c20180105$$lMAI60$$h1443
008528747 CAT   L $$aZ6BSMCG$$b20$$c20180105$$lMAI60$$h1443
008528747 CAT   L $$aZ6BSMCG$$b20$$c20181022$$lMAI60$$h0953
008528747 CAT   L $$aZ6BSMCG$$b20$$c20191030$$lMAI60$$h1400
008528747 CAT   L $$aZ6BSMCG$$b20$$c20191030$$lMAI60$$h1401
008528747 CAT   L $$aZ6BSMCG$$b20$$c20191030$$lMAI60$$h1401
008528747 CAT   L $$aZ6BSMCG$$b20$$c20210122$$lMAI60$$h1435
008528747 CAT   L $$aZ6BSMCG$$b20$$c20210122$$lMAI60$$h1438
008528747 003   L MdBo
008528747 008   L 1302282u^^^^8^^^4001uueng0000000
008528747 022   L $$a1092274X
008528747 LKR   L $$aHOL$$lMAI01$$b002347966
008528747 8520  L $$bBS-BS$$cPERIO$$t000001
008528747 853   L $$899$$av.$$bno.$$u6$$vr$$i(year)$$j(month)$$wb
008528747 853X  L $$899$$912003$$a124$$b1$$i2021$$j01/02$$320210101
008528747 85332 L $$81
008528747 86630 L $$av.116-123(JAN./FEB.2013-Nov./Dec.2020), v.124- (Jan./Feb.2021- )
009108119 FMT   L HO
009108119 LDR   L ^^^^^ny^^a22^^^^^1n^4500
009108119 CAT   L $$aD7HSMDB$$b20$$c20140314$$lMAI60$$h1342
009108119 CAT   L $$aD7HSMDB$$b20$$c20140314$$lMAI60$$h1343
009108119 CAT   L $$aD7HSMDB$$b20$$c20210113$$lMAI60$$h1051
009108119 CAT   L $$aD7HSMDB$$b20$$c20210122$$lMAI60$$h1528
009108119 DEL   L $$aY
009167095 OWN   L $$aBSHOL
009167095 FMT   L HO
009167095 LDR   L ^^^^^nx^^a22^^^^^1i^4500
009167095 CAT   L $$aZ6BSMCG$$b20$$c20140501$$lMAI60$$h1700
009167095 CAT   L $$aZ6BSMCG$$b20$$c20140501$$lMAI60$$h1700
009167095 CAT   L $$aZ6BSMCG$$b20$$c20140501$$lMAI60$$h1700
009167095 CAT   L $$aZ6BSMCG$$b20$$c20140501$$lMAI60$$h1707
009167095 CAT   L $$aZ6BSMCG$$b20$$c20140501$$lMAI60$$h1710
009167095 CAT   L $$aZ6BSMCG$$b20$$c20140501$$lMAI60$$h1711
009167095 CAT   L $$aZ6BSMCG$$b20$$c20140501$$lMAI60$$h1711
009167095 CAT   L $$aZ6BSMCG$$b20$$c20140501$$lMAI60$$h1712
009167095 CAT   L $$aZ6BSMCG$$b20$$c20150115$$lMAI60$$h0912
009167095 CAT   L $$aZ6BSMCG$$b20$$c20150115$$lMAI60$$h0912
009167095 CAT   L $$aZ6BSMCG$$b20$$c20160105$$lMAI60$$h0959
009167095 CAT   L $$aZ6BSMCG$$b20$$c20160105$$lMAI60$$h1000
009167095 CAT   L $$aZ6BSMCG$$b20$$c20170117$$lMAI60$$h0854
009167095 CAT   L $$aZ6BSMCG$$b20$$c20170327$$lMAI60$$h1653
009167095 CAT   L $$aZ6BSMCG$$b20$$c20170327$$lMAI60$$h1654
009167095 CAT   L $$aZ6BSMCG$$b20$$c20170523$$lMAI60$$h1622
009167095 CAT   L $$aZ6BSMCG$$b20$$c20170601$$lMAI60$$h1538
009167095 CAT   L $$aZ6BSMCG$$b20$$c20180111$$lMAI60$$h0932
009167095 CAT   L $$aZ6BSMCG$$b20$$c20180111$$lMAI60$$h0932
009167095 CAT   L $$aZ6BSMCG$$b20$$c20181105$$lMAI60$$h0944
009167095 CAT   L $$aZ6BSMCG$$b20$$c20181105$$lMAI60$$h0945
009167095 CAT   L $$aZ6BSMCG$$b20$$c20191030$$lMAI60$$h0852
009167095 CAT   L $$aZ6BSMCG$$b20$$c20201102$$lMAI60$$h1106
009167095 CAT   L $$aZ6BSMCG$$b20$$c20210122$$lMAI60$$h1508
009167095 CAT   L $$aZ6BSMCG$$b20$$c20210122$$lMAI60$$h1508
009167095 003   L MdBo
009167095 008   L 1405012u^^^^8^^^4001uueng0000000
009167095 022   L $$a1077-1131
009167095 LKR   L $$aHOL$$lMAI01$$b004338421
009167095 852   L $$bBS-BS$$cCLREF$$t00001
009167095 853   L $$899$$av$$bno.$$u9$$vr$$i(year)$$j(month)$$ypm01,02,03,04,05/06,07/08,09,10,11/12$$wm
009167095 853X  L $$899$$900001$$a28$$b1$$i2022$$j01$$320220101
009167095 85332 L $$81
009167095 86630 L $$av.20-46(APR.2014-DEC.2020)
009849302 OWN   L $$aBSHOL
009849302 FMT   L HO
009849302 LDR   L ^^^^^nx^^a22^^^^^1i^4500
009849302 CAT   L $$aZ6BSMCG$$b20$$c20151001$$lMAI60$$h1143
009849302 CAT   L $$aZ6BSMCG$$b20$$c20151001$$lMAI60$$h1143
009849302 CAT   L $$aZ6BSMCG$$b20$$c20151001$$lMAI60$$h1143
009849302 CAT   L $$aZ6BSMCG$$b20$$c20151001$$lMAI60$$h1152
009849302 CAT   L $$aZ6BSMCG$$b20$$c20171121$$lMAI60$$h1031
009849302 CAT   L $$aZ6BSMCG$$b20$$c20190409$$lMAI60$$h1104
009849302 CAT   L $$aZ6BSMCG$$b20$$c20190409$$lMAI60$$h1104
009849302 CAT   L $$aZ6BSMCG$$b20$$c20210122$$lMAI60$$h0924
009849302 CAT   L $$aZ6BSMCG$$b20$$c20210122$$lMAI60$$h0927
009849302 003   L MdBo
009849302 008   L 1510012u^^^^8^^^4001uueng0000000
009849302 022   L $$a0034-0502
009849302 LKR   L $$aHOL$$lMAI01$$b000512173
009849302 8520  L $$bBS-BS$$cESWWW
009849302 86630 L $$av.1#1- (Jan.1960- )$$zE-Journals: Click to Find It
010399049 OWN   L $$aHSHOL
010399049 FMT   L HO
010399049 LDR   L ^^^^^ny^^a22^^^^^1n^4500
010399049 CAT   L $$aD7HSMDB$$b20$$c20160504$$lMAI60$$h1424
010399049 CAT   L $$aD7HSMDB$$b20$$c20160504$$lMAI60$$h1425
010399049 CAT   L $$aD7HSMDB$$b20$$c20210122$$lMAI60$$h1355
010399049 007   L cr^cnu---uuuuu
010399049 008   L 1605044p^^^^8^^^1001baeng0000000
010399049 LKR   L $$aHOL$$lMAI01$$b004670040
010399049 852   L $$bHS-HS$$cONLNE
010399049 866 0 L $$80$$zClick on Find It.$$xVia ScienceDirect Freedom Collection (OA).
010702886 OWN   L $$aLNHOL
010702886 FMT   L HO
010702886 LDR   L ^^^^^cy^^a22003853^^45^0
010702886 CAT   L $$aCONV$$b20$$c20161226$$lMAI60$$h0459
010702886 CAT   L $$aD5LNPC$$b20$$c20210122$$lMAI60$$h1103
010702886 CAT   L $$aD5LNPC$$b20$$c20210122$$lMAI60$$h1117
010702886 001   L LN649589
010702886 004   L LN94650
010702886 005   L 20090615161556.0
010702886 008   L 0204255p08128^^^2001baeng0000000
010702886 0141  L $$aocm03562814
010702886 LKR   L $$aHOL$$lMAI01$$b000739626
010702886 8528  L $$bLNDL$$cPER$$hAlphabetical by title
010702886 86631 L $$80$$av.8 (1984)-v.31 (2007)
010703130 OWN   L $$aLNHOL
010703130 FMT   L HO
010703130 LDR   L ^^^^^cy^^a22004813^^45^0
010703130 CAT   L $$aCONV$$b20$$c20161226$$lMAI60$$h0505
010703130 CAT   L $$aD5LNPC$$b20$$c20170323$$lMAI60$$h2041
010703130 CAT   L $$aD5LNPC$$b20$$c20170323$$lMAI60$$h2042
010703130 CAT   L $$aD5LNPC$$b20$$c20170323$$lMAI60$$h2119
010703130 CAT   L $$aD5LNPC$$b20$$c20170323$$lMAI60$$h2157
010703130 CAT   L $$aD5LNPC$$b20$$c20170628$$lMAI60$$h1920
010703130 CAT   L $$aD5LNPC$$b20$$c20210122$$lMAI60$$h1216
010703130 CAT   L $$aD5LNPC$$b20$$c20210122$$lMAI60$$h1217
010703130 CAT   L $$aD5LNPC$$b20$$c20210122$$lMAI60$$h1219
010703130 CAT   L $$aD5LNPC$$b20$$c20210122$$lMAI60$$h1225
010703130 CAT   L $$aD5LNPC$$b20$$c20210122$$lMAI60$$h1225
010703130 CAT   L $$aD5LNPC$$b20$$c20210122$$lMAI60$$h1226
010703130 CAT   L $$aD5LNPC$$b20$$c20210122$$lMAI60$$h1235
010703130 CAT   L $$aD5LNPC$$b20$$c20210122$$lMAI60$$h1400
010703130 001   L LN649925
010703130 004   L LN116845
010703130 005   L 20140227141408.0
010703130 008   L 0204255p^^^^8^^^2001baeng0000000
010703130 0141  L $$aocm06272734
010703130 LKR   L $$aHOL$$lMAI01$$b000941719
010703130 8528  L $$bLNDL$$cPER$$hAlphabetical by title
010703130 86631 L $$80$$av.61 (1980)-v.71 (1990) ; v.91 (2010)-v.94 (2013) unbound
010703904 OWN   L $$aLNHOL
010703904 FMT   L HO
010703904 LDR   L ^^^^^cy^^a22021973^^45^0
010703904 CAT   L $$aCONV$$b20$$c20161226$$lMAI60$$h0518
010703904 CAT   L $$aD5LNSAE$$b20$$c20171106$$lMAI60$$h1026
010703904 CAT   L $$aD5LNPC$$b20$$c20210122$$lMAI60$$h1547
010703904 001   L LN682382
010703904 004   L LN347395
010703904 005   L 20130624160633.0
010703904 008   L 0304115p^^^^4^^^2001baeng0901128
010703904 LKR   L $$aHOL$$lMAI01$$b000511614
010703904 8528  L $$bLNDL$$cPER$$hAlphabetical by title
010703904 86631 L $$80$$av.7 (1936)-v.44 (1954)
010703904 86631 L $$80$$av.71 (1968)-v.76 (1970)
011259928 OWN   L $$aBCHOL
011259928 FMT   L HO
011259928 LDR   L ^^^^^nx^^a22^^^^^1i^4500
011259928 CAT   L $$aD5BCLAW$$b20$$c20170323$$lMAI60$$h1515
011259928 CAT   L $$aD5BCLAW$$b20$$c20170323$$lMAI60$$h1525
011259928 CAT   L $$aD5BCLAW$$b20$$c20170323$$lMAI60$$h1525
011259928 CAT   L $$aZ5ABCLAW$$b20$$c20170323$$lMAI60$$h1647
011259928 CAT   L $$aZ5ABCLAW$$b20$$c20180425$$lMAI60$$h1526
011259928 CAT   L $$aZ5ABCLAW$$b20$$c20180425$$lMAI60$$h1527
011259928 CAT   L $$aZ5ABCLAW$$b20$$c20190409$$lMAI60$$h1600
011259928 CAT   L $$aZ5ABCLAW$$b20$$c20210122$$lMAI60$$h1307
011259928 007   L ta
011259928 008   L 1703232u^^^^8^^^4001uueng0000000
011259928 022   L $$a1054-6022
011259928 LKR   L $$aHOL$$lMAI01$$b004896904
011259928 852 0 L $$bBC-BC$$cSSTCK
011259928 853   L $$899$$a26$$bno.$$u2$$vr$$i(year)$$j(season)$$wf$$yps23,21
011259928 853X  L $$899$$900001$$a31$$b1$$i2021$$j23$$320210901
011259928 86631 L $$av.26:no.2(2017:spring)-$$xHoldings updated 3/23/17 LW
012929408 OWN   L $$aBSHOL
012929408 FMT   L HO
012929408 LDR   L ^^^^^nx^^a22^^^^^1i^4500
012929408 CAT   L $$aLOADBIB$$b20$$c20201021$$lMAI60$$h1444
012929408 CAT   L $$aLOADBIB$$b20$$c20201021$$lMAI60$$h1444
012929408 CAT   L $$aZ6BSMCG$$b20$$c20201021$$lMAI60$$h1535
012929408 CAT   L $$aZ6BSMCG$$b20$$c20210122$$lMAI60$$h1325
012929408 003   L 2643-7015
012929408 008   L 2010212u^^^^8^^^4001uueng0000000
012929408 LKR   L $$aHOL$$lMAI01$$b006188840
012929408 8520  L $$bBS-BS$$cPERIO
012929408 86630 L $$av.1#1/2(Jan.-Apr.2020)-v.1#3/4(May-Aug.2020)
013004652 FMT   L HO
013004652 LDR   L ^^^^^nx^^a22^^^^^1i^4500
013004652 CAT   L $$aZ6SMKR$$b20$$c20210104$$lMAI60$$h1450
013004652 CAT   L $$aZ6SMKR$$b20$$c20210104$$lMAI60$$h1450
013004652 CAT   L $$aZ6SMKR$$b20$$c20210104$$lMAI60$$h1450
013004652 CAT   L $$aD7SMKR$$b20$$c20210104$$lMAI60$$h1450
013004652 CAT   L $$aD7SMKR$$b20$$c20210122$$lMAI60$$h1418
013004652 DEL   L $$aY
013021043 OWN   L $$aHSHOL
013021043 FMT   L HO
013021043 LDR   L ^^^^^ny^^a22^^^^^1n^4500
013021043 CAT   L $$aD7HSMDB$$b20$$c20210122$$lMAI60$$h0747
013021043 CAT   L $$aD7HSMDB$$b20$$c20210122$$lMAI60$$h0749
013021043 007   L cr^cnu---uuuuu
013021043 008   L 2101224f^^^^8^^^1001baeng0000000
013021043 LKR   L $$aHOL$$lMAI01$$b006203470
013021043 852   L $$bHS-HS$$cONLNE
013021043 866 0 L $$80$$zClick on Find It.$$xVia Elsevier ScienceDirect (OA).
013021044 OWN   L $$aHSHOL
013021044 FMT   L HO
013021044 LDR   L ^^^^^ny^^a22^^^^^1n^4500
013021044 CAT   L $$aD7HSMDB$$b20$$c20210122$$lMAI60$$h0824
013021044 CAT   L $$aD7HSMDB$$b20$$c20210122$$lMAI60$$h0826
013021044 007   L cr^cnu---uuuuu
013021044 008   L 2101225p^^^^8^^^1001baeng0000000
013021044 LKR   L $$aHOL$$lMAI01$$b002426245
013021044 852   L $$bHS-HS$$cONLNE
013021044 866 0 L $$80$$zClick on Find It.$$xVia Elsevier ScienceDirect.
013021045 OWN   L $$aCPHOL
013021045 FMT   L HO
013021045 LDR   L ^^^^^nx^^a22^^^^^1i^4500
013021045 CAT   L $$aD5CPSTA$$b20$$c20210122$$lMAI60$$h0837
013021045 CAT   L $$aD5CPSTA$$b20$$c20210122$$lMAI60$$h0837
013021045 CAT   L $$aD5CPSTA$$b20$$c20210122$$lMAI60$$h0837
013021045 CAT   L $$aD5CPSTA$$b20$$c20210122$$lMAI60$$h0838
013021045 008   L 2101222u^^^^8^^^4001uueng0000000
013021045 LKR   L $$aHOL$$lMAI01$$b006201393
013021045 8523  L $$bCPMCK$$cGVSU$$hW 1.35:11-2413/2
013021046 OWN   L $$aCPHOL
013021046 FMT   L HO
013021046 LDR   L ^^^^^nx^^a22^^^^^1i^4500
013021046 CAT   L $$aD5CPSTA$$b20$$c20210122$$lMAI60$$h0839
013021046 CAT   L $$aD5CPSTA$$b20$$c20210122$$lMAI60$$h0839
013021046 CAT   L $$aD5CPSTA$$b20$$c20210122$$lMAI60$$h0839
013021046 CAT   L $$aD5CPSTA$$b20$$c20210122$$lMAI60$$h0839
013021046 008   L 2101222u^^^^8^^^4001uueng0000000
013021046 LKR   L $$aHOL$$lMAI01$$b006201394
013021046 8523  L $$bCPMCK$$cGVSU$$hW 1.35:11-2422
013021047 OWN   L $$aCPHOL
013021047 FMT   L HO
013021047 LDR   L ^^^^^nx^^a22^^^^^1i^4500
013021047 CAT   L $$aD5CPSTA$$b20$$c20210122$$lMAI60$$h0841
013021047 CAT   L $$aD5CPSTA$$b20$$c20210122$$lMAI60$$h0841
013021047 CAT   L $$aD5CPSTA$$b20$$c20210122$$lMAI60$$h0841
013021047 CAT   L $$aD5CPSTA$$b20$$c20210122$$lMAI60$$h0841
013021047 008   L 2101222u^^^^8^^^4001uueng0000000
013021047 LKR   L $$aHOL$$lMAI01$$b006201396
013021047 8523  L $$bCPMCK$$cGVSU$$hW 1.35:11-2503
013021048 OWN   L $$aCPHOL
013021048 FMT   L HO
013021048 LDR   L ^^^^^nx^^a22^^^^^1i^4500
013021048 CAT   L $$aD5CPSTA$$b20$$c20210122$$lMAI60$$h0842
013021048 CAT   L $$aD5CPSTA$$b20$$c20210122$$lMAI60$$h0842
013021048 CAT   L $$aD5CPSTA$$b20$$c20210122$$lMAI60$$h0842
013021048 CAT   L $$aD5CPSTA$$b20$$c20210122$$lMAI60$$h0843
013021048 008   L 2101222u^^^^8^^^4001uueng0000000
013021048 LKR   L $$aHOL$$lMAI01$$b006201395
013021048 8523  L $$bCPMCK$$cGVSU$$hW 1.35:11-2526
013021049 OWN   L $$aCPHOL
013021049 FMT   L HO
013021049 LDR   L ^^^^^nx^^a22^^^^^1i^4500
013021049 CAT   L $$aD5CPSTA$$b20$$c20210122$$lMAI60$$h0844
013021049 CAT   L $$aD5CPSTA$$b20$$c20210122$$lMAI60$$h0844
013021049 CAT   L $$aD5CPSTA$$b20$$c20210122$$lMAI60$$h0844
013021049 CAT   L $$aD5CPSTA$$b20$$c20210122$$lMAI60$$h0844
013021049 008   L 2101222u^^^^8^^^4001uueng0000000
013021049 LKR   L $$aHOL$$lMAI01$$b006201397
013021049 8523  L $$bCPMCK$$cGVSU$$hW 1.35:11-2532
013021050 OWN   L $$aBCHOL
013021050 FMT   L HO
013021050 LDR   L ^^^^^nx^^a22^^^^^1i^4500
013021050 CAT   L $$aD5BCALW$$b20$$c20210122$$lMAI60$$h0917
013021050 CAT   L $$aD5BCALW$$b20$$c20210122$$lMAI60$$h0917
013021050 CAT   L $$aD5BCALW$$b20$$c20210122$$lMAI60$$h0917
013021050 CAT   L $$aD5BCALW$$b20$$c20210122$$lMAI60$$h0918
013021050 CAT   L $$aD5BCALW$$b20$$c20210122$$lMAI60$$h0918
013021050 CAT   L $$aD5BCALW$$b20$$c20210122$$lMAI60$$h0918
013021050 008   L 2101222u^^^^8^^^4001uueng0000000
013021050 LKR   L $$aHOL$$lMAI01$$b006201254
013021050 8520  L $$bBC-BC$$cWWW$$zClick on Find It button
013021050 876   L $$zClick on Find It button
013021051 OWN   L $$aBSHOL
013021051 FMT   L HO
013021051 LDR   L ^^^^^nx^^a22^^^^^1i^4500
013021051 CAT   L $$aZ6BSMCG$$b20$$c20210122$$lMAI60$$h0920
013021051 CAT   L $$aZ6BSMCG$$b20$$c20210122$$lMAI60$$h0920
013021051 CAT   L $$aZ6BSMCG$$b20$$c20210122$$lMAI60$$h0920
013021051 CAT   L $$aZ6BSMCG$$b20$$c20210122$$lMAI60$$h0923
013021051 003   L MdBo
013021051 008   L 2101222u^^^^8^^^4001uueng0000000
013021051 022   L $$a0034-0502
013021051 LKR   L $$aHOL$$lMAI01$$b004969939
013021051 8520  L $$bBS-BS$$cPERMF
013021051 86630 L $$av.38-43 Sept.1997-Feb.2003, v.46 Spt.2005-Apr.2006, v49-50 Oct.2008-Feb.2011
013021052 OWN   L $$aBCHOL
013021052 FMT   L HO
013021052 LDR   L ^^^^^nx^^a22^^^^^1i^4500
013021052 CAT   L $$aD5BCALW$$b20$$c20210122$$lMAI60$$h0925
013021052 CAT   L $$aD5BCALW$$b20$$c20210122$$lMAI60$$h0925
013021052 CAT   L $$aD5BCALW$$b20$$c20210122$$lMAI60$$h0925
013021052 CAT   L $$aD5BCALW$$b20$$c20210122$$lMAI60$$h0925
013021052 CAT   L $$aD5BCALW$$b20$$c20210122$$lMAI60$$h0925
013021052 CAT   L $$aD5BCALW$$b20$$c20210122$$lMAI60$$h0925
013021052 CAT   L $$aD5BCALW$$b20$$c20210122$$lMAI60$$h0925
013021052 CAT   L $$aD5BCALW$$b20$$c20210122$$lMAI60$$h0925
013021052 008   L 2101222u^^^^8^^^4001uueng0000000
013021052 LKR   L $$aHOL$$lMAI01$$b006201256
013021052 8520  L $$bBC-BC$$cWWW$$zClick on Find It button
013021052 876   L $$zClick on Find It button
013021053 OWN   L $$aBCHOL
013021053 FMT   L HO
013021053 LDR   L ^^^^^nx^^a22^^^^^1i^4500
013021053 CAT   L $$aD5BCALW$$b20$$c20210122$$lMAI60$$h0935
013021053 CAT   L $$aD5BCALW$$b20$$c20210122$$lMAI60$$h0935
013021053 CAT   L $$aD5BCALW$$b20$$c20210122$$lMAI60$$h0935
013021053 CAT   L $$aD5BCALW$$b20$$c20210122$$lMAI60$$h0935
013021053 CAT   L $$aD5BCALW$$b20$$c20210122$$lMAI60$$h0935
013021053 008   L 2101222u^^^^8^^^4001uueng0000000
013021053 LKR   L $$aHOL$$lMAI01$$b006201259
013021053 8520  L $$bBC-BC$$cWWW$$zClick on Find It button
013021053 876   L $$zClick on Find It button
013021054 OWN   L $$aBSHOL
013021054 FMT   L HO
013021054 LDR   L ^^^^^nx^^a22^^^^^1i^4500
013021054 CAT   L $$aZ6BSMCG$$b20$$c20210122$$lMAI60$$h0937
013021054 CAT   L $$aZ6BSMCG$$b20$$c20210122$$lMAI60$$h0937
013021054 CAT   L $$aZ6BSMCG$$b20$$c20210122$$lMAI60$$h0937
013021054 CAT   L $$aZ6BSMCG$$b20$$c20210122$$lMAI60$$h0939
013021054 003   L MdBo
013021054 008   L 2101222u^^^^8^^^4001uueng0000000
013021054 LKR   L $$aHOL$$lMAI01$$b004450208
013021054 8520  L $$bBS-BS$$cESWWW
013021054 86630 L $$av.41#1- (Sprg.2004- )$$zE-Journals: Click to Find It
013021055 OWN   L $$aFSHOL
013021055 FMT   L HO
013021055 LDR   L ^^^^^nx^^a22^^^^^1i^4500
013021055 CAT   L $$aD5FSCAT$$b20$$c20210122$$lMAI60$$h0942
013021055 CAT   L $$aD5FSCAT$$b20$$c20210122$$lMAI60$$h0942
013021055 CAT   L $$aD5FSCAT$$b20$$c20210122$$lMAI60$$h0942
013021055 CAT   L $$aD5FSCAT$$b20$$c20210122$$lMAI60$$h0942
013021055 008   L 2101222u^^^^8^^^4001uueng0000000
013021055 LKR   L $$aHOL$$lMAI01$$b006010223
013021055 8520  L $$bFS-FA$$cSTACK$$hML2054$$i.M89 2015
013021056 OWN   L $$aBCHOL
013021056 FMT   L HO
013021056 LDR   L ^^^^^nx^^a22^^^^^1i^4500
013021056 CAT   L $$aD5BCALW$$b20$$c20210122$$lMAI60$$h0945
013021056 CAT   L $$aD5BCALW$$b20$$c20210122$$lMAI60$$h0945
013021056 CAT   L $$aD5BCALW$$b20$$c20210122$$lMAI60$$h0945
013021056 CAT   L $$aD5BCALW$$b20$$c20210122$$lMAI60$$h0946
013021056 CAT   L $$aD5BCALW$$b20$$c20210122$$lMAI60$$h0946
013021056 008   L 2101222u^^^^8^^^4001uueng0000000
013021056 LKR   L $$aHOL$$lMAI01$$b006201260
013021056 8520  L $$bBC-BC$$cWWW$$zClick on Find It button
013021056 876   L $$zClick on Find It button
013021057 OWN   L $$aHSHOL
013021057 FMT   L HO
013021057 LDR   L ^^^^^ny^^a22^^^^^1n^4500
013021057 CAT   L $$aD7HSMDB$$b20$$c20210122$$lMAI60$$h0951
013021057 CAT   L $$aD7HSMDB$$b20$$c20210122$$lMAI60$$h0953
013021057 CAT   L $$aD7HSMDB$$b20$$c20210122$$lMAI60$$h0959
013021057 007   L cr^cnu---uuuuu
013021057 008   L 2101224p^^^^8^^^1001baeng0000000
013021057 LKR   L $$aHOL$$lMAI01$$b006203471
013021057 852   L $$bHS-HS$$cONLNE
013021057 866 0 L $$80$$zClick on Find It.$$xVia Elsevier ScienceDirect.
013021058 OWN   L $$aBCHOL
013021058 FMT   L HO
013021058 LDR   L ^^^^^nx^^a22^^^^^1i^4500
013021058 CAT   L $$aD5BCALW$$b20$$c20210122$$lMAI60$$h0953
013021058 CAT   L $$aD5BCALW$$b20$$c20210122$$lMAI60$$h0953
013021058 CAT   L $$aD5BCALW$$b20$$c20210122$$lMAI60$$h0953
013021058 CAT   L $$aD5BCALW$$b20$$c20210122$$lMAI60$$h0953
013021058 CAT   L $$aD5BCALW$$b20$$c20210122$$lMAI60$$h0953
013021058 008   L 2101222u^^^^8^^^4001uueng0000000
013021058 LKR   L $$aHOL$$lMAI01$$b006201261
013021058 8520  L $$bBC-BC$$cWWW$$zClick on Find It button
013021058 876   L $$zClick on Find It button
013021059 OWN   L $$aBCHOL
013021059 FMT   L HO
013021059 LDR   L ^^^^^nx^^a22^^^^^1i^4500
013021059 CAT   L $$aD5BCALW$$b20$$c20210122$$lMAI60$$h0959
013021059 CAT   L $$aD5BCALW$$b20$$c20210122$$lMAI60$$h0959
013021059 CAT   L $$aD5BCALW$$b20$$c20210122$$lMAI60$$h0959
013021059 CAT   L $$aD5BCALW$$b20$$c20210122$$lMAI60$$h0959
013021059 CAT   L $$aD5BCALW$$b20$$c20210122$$lMAI60$$h0959
013021059 CAT   L $$aD5BCALW$$b20$$c20210122$$lMAI60$$h0959
013021059 008   L 2101222u^^^^8^^^4001uueng0000000
013021059 LKR   L $$aHOL$$lMAI01$$b006201262
013021059 8520  L $$bBC-BC$$cWWW$$zClick on Find It button
013021059 876   L $$zClick on Find It button
013021060 OWN   L $$aBCHOL
013021060 FMT   L HO
013021060 LDR   L ^^^^^nx^^a22^^^^^1i^4500
013021060 CAT   L $$aD5BCALW$$b20$$c20210122$$lMAI60$$h1017
013021060 CAT   L $$aD5BCALW$$b20$$c20210122$$lMAI60$$h1017
013021060 CAT   L $$aD5BCALW$$b20$$c20210122$$lMAI60$$h1017
013021060 CAT   L $$aD5BCALW$$b20$$c20210122$$lMAI60$$h1018
013021060 CAT   L $$aD5BCALW$$b20$$c20210122$$lMAI60$$h1018
013021060 CAT   L $$aD5BCALW$$b20$$c20210122$$lMAI60$$h1018
013021060 CAT   L $$aD5BCALW$$b20$$c20210122$$lMAI60$$h1018
013021060 008   L 2101222u^^^^8^^^4001uueng0000000
013021060 LKR   L $$aHOL$$lMAI01$$b006201299
013021060 8520  L $$bBC-BC$$cWWW$$zClick on Find It button
013021060 876   L $$zClick on Find It button
013021061 OWN   L $$aBCHOL
013021061 FMT   L HO
013021061 LDR   L ^^^^^nx^^a22^^^^^1i^4500
013021061 CAT   L $$aD5BCALW$$b20$$c20210122$$lMAI60$$h1023
013021061 CAT   L $$aD5BCALW$$b20$$c20210122$$lMAI60$$h1023
013021061 CAT   L $$aD5BCALW$$b20$$c20210122$$lMAI60$$h1023
013021061 CAT   L $$aD5BCALW$$b20$$c20210122$$lMAI60$$h1024
013021061 CAT   L $$aD5BCALW$$b20$$c20210122$$lMAI60$$h1024
013021061 CAT   L $$aD5BCALW$$b20$$c20210122$$lMAI60$$h1024
013021061 CAT   L $$aD5BCALW$$b20$$c20210122$$lMAI60$$h1024
013021061 CAT   L $$aD5BCALW$$b20$$c20210122$$lMAI60$$h1024
013021061 008   L 2101222u^^^^8^^^4001uueng0000000
013021061 LKR   L $$aHOL$$lMAI01$$b006201302
013021061 8520  L $$bBC-BC$$cWWW$$zClick on Find It button
013021061 876   L $$zClick on Find It button
013021062 OWN   L $$aBCHOL
013021062 FMT   L HO
013021062 LDR   L ^^^^^nx^^a22^^^^^1i^4500
013021062 CAT   L $$aD5BCALW$$b20$$c20210122$$lMAI60$$h1029
013021062 CAT   L $$aD5BCALW$$b20$$c20210122$$lMAI60$$h1029
013021062 CAT   L $$aD5BCALW$$b20$$c20210122$$lMAI60$$h1029
013021062 CAT   L $$aD5BCALW$$b20$$c20210122$$lMAI60$$h1030
013021062 CAT   L $$aD5BCALW$$b20$$c20210122$$lMAI60$$h1030
013021062 CAT   L $$aD5BCALW$$b20$$c20210122$$lMAI60$$h1030
013021062 008   L 2101222u^^^^8^^^4001uueng0000000
013021062 LKR   L $$aHOL$$lMAI01$$b006201307
013021062 8520  L $$bBC-BC$$cWWW$$zClick on Find It button
013021062 876   L $$zClick on Find It button
013021063 OWN   L $$aSS
013021063 FMT   L HO
013021063 LDR   L ^^^^^nx^^a22^^^^^1i^4500
013021063 CAT   L $$aXSUAHS$$b20$$c20210122$$lMAI60$$h1031
013021063 CAT   L $$aXSUAHS$$b20$$c20210122$$lMAI60$$h1032
013021063 008   L 2101222u^^^^8^^^4001uueng0000000
013021063 LKR   L $$aHOL$$lMAI01$$b004732214
013021063 590   L $$aGreen earth book award.
013021064 OWN   L $$aSS
013021064 FMT   L HO
013021064 LDR   L ^^^^^nx^^a22^^^^^1i^4500
013021064 CAT   L $$aXSUAHS$$b20$$c20210122$$lMAI60$$h1034
013021064 CAT   L $$aXSUAHS$$b20$$c20210122$$lMAI60$$h1035
013021064 008   L 2101222u^^^^8^^^4001uuspa0000000
013021064 LKR   L $$aHOL$$lMAI01$$b004713026
013021064 590   L $$aGreen earth book award.
013021065 OWN   L $$aBCHOL
013021065 FMT   L HO
013021065 LDR   L ^^^^^nx^^a22^^^^^1i^4500
013021065 CAT   L $$aD5BCALW$$b20$$c20210122$$lMAI60$$h1038
013021065 CAT   L $$aD5BCALW$$b20$$c20210122$$lMAI60$$h1038
013021065 CAT   L $$aD5BCALW$$b20$$c20210122$$lMAI60$$h1038
013021065 CAT   L $$aD5BCALW$$b20$$c20210122$$lMAI60$$h1038
013021065 CAT   L $$aD5BCALW$$b20$$c20210122$$lMAI60$$h1038
013021065 008   L 2101222u^^^^8^^^4001uueng0000000
013021065 LKR   L $$aHOL$$lMAI01$$b006201310
013021065 8520  L $$bBC-BC$$cWWW$$zClick on Find It button
013021065 876   L $$zClick on Find It button
013021066 OWN   L $$aSS
013021066 FMT   L HO
013021066 LDR   L ^^^^^nx^^a22^^^^^1i^4500
013021066 CAT   L $$aXSUAHS$$b20$$c20210122$$lMAI60$$h1039
013021066 CAT   L $$aXSUAHS$$b20$$c20210122$$lMAI60$$h1039
013021066 008   L 2101222u^^^^8^^^4001uueng0000000
013021066 LKR   L $$aHOL$$lMAI01$$b003691778
013021066 590   L $$aGreen earth book award.
013021067 OWN   L $$aSS
013021067 FMT   L HO
013021067 LDR   L ^^^^^nx^^a22^^^^^1i^4500
013021067 CAT   L $$aXSUAHS$$b20$$c20210122$$lMAI60$$h1041
013021067 CAT   L $$aXSUAHS$$b20$$c20210122$$lMAI60$$h1041
013021067 008   L 2101222u^^^^8^^^4001uueng0000000
013021067 LKR   L $$aHOL$$lMAI01$$b004713081
013021067 590   L $$aGreen earth book award.
013021070 OWN   L $$aSS
013021070 FMT   L HO
013021070 LDR   L ^^^^^nx^^a22^^^^^1i^4500
013021070 CAT   L $$aXSUAHS$$b20$$c20210122$$lMAI60$$h1047
013021070 CAT   L $$aXSUAHS$$b20$$c20210122$$lMAI60$$h1047
013021070 008   L 2101222u^^^^8^^^4001uueng0000000
013021070 LKR   L $$aHOL$$lMAI01$$b004713456
013021070 590   L $$aGreen earth book award.
013021071 OWN   L $$aBCHOL
013021071 FMT   L HO
013021071 LDR   L ^^^^^nx^^a22^^^^^1i^4500
013021071 CAT   L $$aD5BCALW$$b20$$c20210122$$lMAI60$$h1047
013021071 CAT   L $$aD5BCALW$$b20$$c20210122$$lMAI60$$h1047
013021071 CAT   L $$aD5BCALW$$b20$$c20210122$$lMAI60$$h1047
013021071 CAT   L $$aD5BCALW$$b20$$c20210122$$lMAI60$$h1048
013021071 CAT   L $$aD5BCALW$$b20$$c20210122$$lMAI60$$h1048
013021071 008   L 2101222u^^^^8^^^4001uueng0000000
013021071 LKR   L $$aHOL$$lMAI01$$b006201312
013021071 8520  L $$bBC-BC$$cWWW$$zClick on Find It button
013021071 876   L $$zClick on Find It button
013021072 FMT   L HO
013021072 LDR   L ^^^^^nx^^a22^^^^^1i^4500
013021072 CAT   L $$aD5ESMRS$$b20$$c20210122$$lMAI60$$h1052
013021072 CAT   L $$aD5ESMRS$$b20$$c20210122$$lMAI60$$h1052
013021072 CAT   L $$aD5ESMRS$$b20$$c20210122$$lMAI60$$h1052
013021072 008   L 2101222u^^^^8^^^4001uueng0000000
013021072 LKR   L $$aHOL$$lMAI01$$b006203473
013021072 8520  L $$bES-ES$$cSPCOL$$hGB857$$i.K56 2015
013021073 OWN   L $$aSMHOL
013021073 FMT   L HO
013021073 LDR   L ^^^^^nx^^a22^^^^^1i^4500
013021073 CAT   L $$aLOADBIB$$b20$$c20210122$$lMAI60$$h1054
013021073 CAT   L $$aLOADBIB$$b20$$c20210122$$lMAI60$$h1054
013021073 CAT   L $$aD7SMKR$$b20$$c20210122$$lMAI60$$h1419
013021073 008   L 2101222u^^^^8^^^4001uueng0000000
013021073 LKR   L $$aHOL$$lMAI01$$b006203474
013021073 8520  L $$bSM-SM$$cCMDC$$hE441$$i.T487 2020
013021074 OWN   L $$aSS
013021074 FMT   L HO
013021074 LDR   L ^^^^^nx^^a22^^^^^1i^4500
013021074 CAT   L $$aXSUAHS$$b20$$c20210122$$lMAI60$$h1059
013021074 CAT   L $$aXSUAHS$$b20$$c20210122$$lMAI60$$h1100
013021074 008   L 2101222u^^^^8^^^4001uueng0000000
013021074 LKR   L $$aHOL$$lMAI01$$b006181831
013021074 590   L $$aGreen earth book award.
013021075 OWN   L $$aSS
013021075 FMT   L HO
013021075 LDR   L ^^^^^nx^^a22^^^^^1i^4500
013021075 CAT   L $$aXSUAHS$$b20$$c20210122$$lMAI60$$h1100
013021075 CAT   L $$aXSUAHS$$b20$$c20210122$$lMAI60$$h1101
013021075 008   L 2101222u^^^^8^^^4001uueng0000000
013021075 LKR   L $$aHOL$$lMAI01$$b006095143
013021075 590   L $$aGreen earth book award.
013021076 OWN   L $$aSS
013021076 FMT   L HO
013021076 LDR   L ^^^^^nx^^a22^^^^^1i^4500
013021076 CAT   L $$aXSUAHS$$b20$$c20210122$$lMAI60$$h1101
013021076 CAT   L $$aXSUAHS$$b20$$c20210122$$lMAI60$$h1102
013021076 008   L 2101222u^^^^8^^^4001uueng0000000
013021076 LKR   L $$aHOL$$lMAI01$$b006181840
013021076 590   L $$aGreen earth book award.
013021077 OWN   L $$aBCHOL
013021077 FMT   L HO
013021077 LDR   L ^^^^^nx^^a22^^^^^1i^4500
013021077 CAT   L $$aD5BCALW$$b20$$c20210122$$lMAI60$$h1101
013021077 CAT   L $$aD5BCALW$$b20$$c20210122$$lMAI60$$h1101
013021077 CAT   L $$aD5BCALW$$b20$$c20210122$$lMAI60$$h1101
013021077 CAT   L $$aD5BCALW$$b20$$c20210122$$lMAI60$$h1102
013021077 CAT   L $$aD5BCALW$$b20$$c20210122$$lMAI60$$h1102
013021077 008   L 2101222u^^^^8^^^4001uueng0000000
013021077 LKR   L $$aHOL$$lMAI01$$b006201313
013021077 8520  L $$bBC-BC$$cWWW$$zClick on Find It button
013021077 876   L $$zClick on Find It button
013021078 OWN   L $$aSS
013021078 FMT   L HO
013021078 LDR   L ^^^^^nx^^a22^^^^^1i^4500
013021078 CAT   L $$aXSUAHS$$b20$$c20210122$$lMAI60$$h1102
013021078 CAT   L $$aXSUAHS$$b20$$c20210122$$lMAI60$$h1103
013021078 008   L 2101222u^^^^8^^^4001uueng0000000
013021078 LKR   L $$aHOL$$lMAI01$$b006124882
013021078 590   L $$aGreen earth book award.
013021079 OWN   L $$aSS
013021079 FMT   L HO
013021079 LDR   L ^^^^^nx^^a22^^^^^1i^4500
013021079 CAT   L $$aXSUAHS$$b20$$c20210122$$lMAI60$$h1103
013021079 CAT   L $$aXSUAHS$$b20$$c20210122$$lMAI60$$h1104
013021079 008   L 2101222u^^^^8^^^4001uueng0000000
013021079 LKR   L $$aHOL$$lMAI01$$b006155414
013021079 590   L $$aGreen earth book award.
013021080 OWN   L $$aBSHOL
013021080 FMT   L HO
013021080 LDR   L ^^^^^nx^^a22^^^^^1i^4500
013021080 CAT   L $$aZ6BSMCG$$b20$$c20210122$$lMAI60$$h1145
013021080 CAT   L $$aZ6BSMCG$$b20$$c20210122$$lMAI60$$h1145
013021080 CAT   L $$aZ6BSMCG$$b20$$c20210122$$lMAI60$$h1145
013021080 CAT   L $$aZ6BSMCG$$b20$$c20210122$$lMAI60$$h1147
013021080 003   L MdBo
013021080 008   L 2101222u^^^^8^^^4001uueng0000000
013021080 022   L $$a1936-2722
013021080 LKR   L $$aHOL$$lMAI01$$b004409961
013021080 8520  L $$bBS-BS$$cESWWW
013021080 86630 L $$av.47#1- (Jan./Feb./Mar.2012- )$$zE-Journals: Click to Find It
013021081 OWN   L $$aBSHOL
013021081 FMT   L HO
013021081 LDR   L ^^^^^nx^^a22^^^^^1i^4500
013021081 CAT   L $$aZ6BSMCG$$b20$$c20210122$$lMAI60$$h1204
013021081 CAT   L $$aZ6BSMCG$$b20$$c20210122$$lMAI60$$h1204
013021081 CAT   L $$aZ6BSMCG$$b20$$c20210122$$lMAI60$$h1204
013021081 CAT   L $$aZ6BSMCG$$b20$$c20210122$$lMAI60$$h1207
013021081 003   L MdBo
013021081 008   L 2101222u^^^^8^^^4001uueng0000000
013021081 022   L $$a0034-0553
013021081 LKR   L $$aHOL$$lMAI01$$b004970024
013021081 8520  L $$bBS-BS$$cPERMF
013021081 86630 L $$av.6-12(Fall 1970-Sumr.1977, v.32-39(Jan1997-Dec.2004), v.41-45(Jan.2006-Dec.2010)
013021082 OWN   L $$aBCHOL
013021082 FMT   L HO
013021082 LDR   L ^^^^^nx^^a22^^^^^1i^4500
013021082 CAT   L $$aD5BCALW$$b20$$c20210122$$lMAI60$$h1228
013021082 CAT   L $$aD5BCALW$$b20$$c20210122$$lMAI60$$h1228
013021082 CAT   L $$aD5BCALW$$b20$$c20210122$$lMAI60$$h1228
013021082 CAT   L $$aD5BCALW$$b20$$c20210122$$lMAI60$$h1229
013021082 CAT   L $$aD5BCALW$$b20$$c20210122$$lMAI60$$h1229
013021082 CAT   L $$aD5BCALW$$b20$$c20210122$$lMAI60$$h1229
013021082 CAT   L $$aD5BCALW$$b20$$c20210122$$lMAI60$$h1229
013021082 CAT   L $$aD5BCALW$$b20$$c20210122$$lMAI60$$h1229
013021082 CAT   L $$aD5BCALW$$b20$$c20210122$$lMAI60$$h1229
013021082 008   L 2101222u^^^^8^^^4001uueng0000000
013021082 LKR   L $$aHOL$$lMAI01$$b006201675
013021082 8520  L $$bBC-BC$$cWWW$$zClick on Find It button
013021082 876   L $$zClick on Find It button
013021083 OWN   L $$aSS
013021083 FMT   L HO
013021083 LDR   L ^^^^^nx^^a22^^^^^1i^4500
013021083 CAT   L $$aXSUAHS$$b20$$c20210122$$lMAI60$$h1312
013021083 CAT   L $$aXSUAHS$$b20$$c20210122$$lMAI60$$h1313
013021083 008   L 2101222u^^^^8^^^4001uueng0000000
013021083 LKR   L $$aHOL$$lMAI01$$b004441768
013021083 590   L $$aGreen earth book award.
013021084 OWN   L $$aSS
013021084 FMT   L HO
013021084 LDR   L ^^^^^nx^^a22^^^^^1i^4500
013021084 CAT   L $$aXSUAHS$$b20$$c20210122$$lMAI60$$h1314
013021084 CAT   L $$aXSUAHS$$b20$$c20210122$$lMAI60$$h1314
013021084 008   L 2101222u^^^^8^^^4001uueng0000000
013021084 LKR   L $$aHOL$$lMAI01$$b004550651
013021084 590   L $$aGreen earth book award.
013021085 OWN   L $$aSS
013021085 FMT   L HO
013021085 LDR   L ^^^^^nx^^a22^^^^^1i^4500
013021085 CAT   L $$aXSUAHS$$b20$$c20210122$$lMAI60$$h1315
013021085 CAT   L $$aXSUAHS$$b20$$c20210122$$lMAI60$$h1315
013021085 008   L 2101222u^^^^8^^^4001uueng0000000
013021085 LKR   L $$aHOL$$lMAI01$$b004561291
013021085 590   L $$aGreen earth book award.
013021086 OWN   L $$aSS
013021086 FMT   L HO
013021086 LDR   L ^^^^^nx^^a22^^^^^1i^4500
013021086 CAT   L $$aXSUAHS$$b20$$c20210122$$lMAI60$$h1316
013021086 CAT   L $$aXSUAHS$$b20$$c20210122$$lMAI60$$h1316
013021086 008   L 2101222u^^^^8^^^4001uueng0000000
013021086 LKR   L $$aHOL$$lMAI01$$b004436233
013021086 590   L $$aGreen earth book award.
013021087 OWN   L $$aSS
013021087 FMT   L HO
013021087 LDR   L ^^^^^nx^^a22^^^^^1i^4500
013021087 CAT   L $$aXSUAHS$$b20$$c20210122$$lMAI60$$h1317
013021087 CAT   L $$aXSUAHS$$b20$$c20210122$$lMAI60$$h1318
013021087 008   L 2101222u^^^^8^^^4001uueng0000000
013021087 LKR   L $$aHOL$$lMAI01$$b004550650
013021087 590   L $$aGreen earth book award.
013021088 OWN   L $$aESHOL
013021088 FMT   L HO
013021088 LDR   L ^^^^^nx^^a22^^^^^1i^4500
013021088 CAT   L $$aLOADBIB$$b20$$c20210122$$lMAI60$$h1319
013021088 CAT   L $$aLOADBIB$$b20$$c20210122$$lMAI60$$h1319
013021088 008   L 2101222u^^^^8^^^4001uueng0000000
013021088 LKR   L $$aHOL$$lMAI01$$b006203475
013021088 8520  L $$bES-ES$$cSPCOL$$hRA776.5$$i.H4 1995
013021089 OWN   L $$aSS
013021089 FMT   L HO
013021089 LDR   L ^^^^^nx^^a22^^^^^1i^4500
013021089 CAT   L $$aXSUAHS$$b20$$c20210122$$lMAI60$$h1319
013021089 CAT   L $$aXSUAHS$$b20$$c20210122$$lMAI60$$h1319
013021089 008   L 2101222u^^^^8^^^4001uueng0000000
013021089 LKR   L $$aHOL$$lMAI01$$b004882098
013021089 590   L $$aGreen earth book award.
013021090 OWN   L $$aSS
013021090 FMT   L HO
013021090 LDR   L ^^^^^nx^^a22^^^^^1i^4500
013021090 CAT   L $$aXSUAHS$$b20$$c20210122$$lMAI60$$h1320
013021090 CAT   L $$aXSUAHS$$b20$$c20210122$$lMAI60$$h1320
013021090 008   L 2101222u^^^^8^^^4001uueng0000000
013021090 LKR   L $$aHOL$$lMAI01$$b004520522
013021090 590   L $$aGreen earth book award.
013021091 OWN   L $$aSS
013021091 FMT   L HO
013021091 LDR   L ^^^^^nx^^a22^^^^^1i^4500
013021091 CAT   L $$aXSUAHS$$b20$$c20210122$$lMAI60$$h1321
013021091 CAT   L $$aXSUAHS$$b20$$c20210122$$lMAI60$$h1321
013021091 008   L 2101222u^^^^8^^^4001uueng0000000
013021091 LKR   L $$aHOL$$lMAI01$$b004376093
013021091 590   L $$aGreen earth book award.
013021092 OWN   L $$aSS
013021092 FMT   L HO
013021092 LDR   L ^^^^^nx^^a22^^^^^1i^4500
013021092 CAT   L $$aXSUAHS$$b20$$c20210122$$lMAI60$$h1322
013021092 CAT   L $$aXSUAHS$$b20$$c20210122$$lMAI60$$h1322
013021092 008   L 2101222u^^^^8^^^4001uueng0000000
013021092 LKR   L $$aHOL$$lMAI01$$b004385710
013021092 590   L $$aGreen earth book award.
013021093 OWN   L $$aSS
013021093 FMT   L HO
013021093 LDR   L ^^^^^nx^^a22^^^^^1i^4500
013021093 CAT   L $$aXSUAHS$$b20$$c20210122$$lMAI60$$h1323
013021093 CAT   L $$aXSUAHS$$b20$$c20210122$$lMAI60$$h1323
013021093 008   L 2101222u^^^^8^^^4001uueng0000000
013021093 LKR   L $$aHOL$$lMAI01$$b004717062
013021093 590   L $$aGreen earth book award.
013021095 OWN   L $$aSS
013021095 FMT   L HO
013021095 LDR   L ^^^^^nx^^a22^^^^^1i^4500
013021095 CAT   L $$aXSUAHS$$b20$$c20210122$$lMAI60$$h1353
013021095 CAT   L $$aXSUAHS$$b20$$c20210122$$lMAI60$$h1353
013021095 008   L 2101222u^^^^8^^^4001uueng0000000
013021095 LKR   L $$aHOL$$lMAI01$$b004717059
013021095 590   L $$aGreen earth book award.
013021096 OWN   L $$aSS
013021096 FMT   L HO
013021096 LDR   L ^^^^^nx^^a22^^^^^1i^4500
013021096 CAT   L $$aXSUAHS$$b20$$c20210122$$lMAI60$$h1354
013021096 CAT   L $$aXSUAHS$$b20$$c20210122$$lMAI60$$h1354
013021096 008   L 2101222u^^^^8^^^4001uueng0000000
013021096 LKR   L $$aHOL$$lMAI01$$b004717063
013021096 590   L $$aGreen earth book award.
013021098 OWN   L $$aSS
013021098 FMT   L HO
013021098 LDR   L ^^^^^nx^^a22^^^^^1i^4500
013021098 CAT   L $$aXSUAHS$$b20$$c20210122$$lMAI60$$h1357
013021098 CAT   L $$aXSUAHS$$b20$$c20210122$$lMAI60$$h1358
013021098 008   L 2101222u^^^^8^^^4001uueng0000000
013021098 LKR   L $$aHOL$$lMAI01$$b004185813
013021098 590   L $$aGreen earth book award.
013021099 OWN   L $$aSS
013021099 FMT   L HO
013021099 LDR   L ^^^^^nx^^a22^^^^^1i^4500
013021099 CAT   L $$aXSUAHS$$b20$$c20210122$$lMAI60$$h1359
013021099 CAT   L $$aXSUAHS$$b20$$c20210122$$lMAI60$$h1359
013021099 008   L 2101222u^^^^8^^^4001uueng0000000
013021099 LKR   L $$aHOL$$lMAI01$$b004329298
013021099 590   L $$aGreen earth book award.
013021100 OWN   L $$aFSHOL
013021100 FMT   L HO
013021100 LDR   L ^^^^^nx^^a22^^^^^1i^4500
013021100 CAT   L $$aD5FSCAT$$b20$$c20210122$$lMAI60$$h1410
013021100 CAT   L $$aD5FSCAT$$b20$$c20210122$$lMAI60$$h1410
013021100 CAT   L $$aD5FSCAT$$b20$$c20210122$$lMAI60$$h1410
013021100 CAT   L $$aD5FSCAT$$b20$$c20210122$$lMAI60$$h1410
013021100 008   L 2101222u^^^^8^^^4001uueng0000000
013021100 LKR   L $$aHOL$$lMAI01$$b006134855
013021100 8520  L $$bFS-FA$$cSTACK$$hJK3868$$i.M37 2019
013021102 OWN   L $$aBCHOL
013021102 FMT   L HO
013021102 LDR   L ^^^^^nx^^a22^^^^^1i^4500
013021102 CAT   L $$aD5BCALW$$b20$$c20210122$$lMAI60$$h1422
013021102 CAT   L $$aD5BCALW$$b20$$c20210122$$lMAI60$$h1422
013021102 CAT   L $$aD5BCALW$$b20$$c20210122$$lMAI60$$h1422
013021102 CAT   L $$aD5BCALW$$b20$$c20210122$$lMAI60$$h1422
013021102 CAT   L $$aD5BCALW$$b20$$c20210122$$lMAI60$$h1422
013021102 008   L 2101222u^^^^8^^^4001uueng0000000
013021102 LKR   L $$aHOL$$lMAI01$$b006201670
013021102 8520  L $$bBC-BC$$cWWW$$zClick on Find It button
013021102 876   L $$zClick on Find It button
013021103 OWN   L $$aESHOL
013021103 FMT   L HO
013021103 LDR   L ^^^^^nx^^a22^^^^^1i^4500
013021103 CAT   L $$aLOADBIB$$b20$$c20210122$$lMAI60$$h1428
013021103 CAT   L $$aLOADBIB$$b20$$c20210122$$lMAI60$$h1428
013021103 008   L 2101222u^^^^8^^^4001uueng0000000
013021103 LKR   L $$aHOL$$lMAI01$$b006203477
013021103 8520  L $$bES-ES$$cSPCOL$$hSF95$$i.M83 1997
013021104 OWN   L $$aBCHOL
013021104 FMT   L HO
013021104 LDR   L ^^^^^nx^^a22^^^^^1i^4500
013021104 CAT   L $$aD5BCALW$$b20$$c20210122$$lMAI60$$h1429
013021104 CAT   L $$aD5BCALW$$b20$$c20210122$$lMAI60$$h1429
013021104 CAT   L $$aD5BCALW$$b20$$c20210122$$lMAI60$$h1429
013021104 CAT   L $$aD5BCALW$$b20$$c20210122$$lMAI60$$h1429
013021104 CAT   L $$aD5BCALW$$b20$$c20210122$$lMAI60$$h1429
013021104 CAT   L $$aD5BCALW$$b20$$c20210122$$lMAI60$$h1430
013021104 CAT   L $$aD5BCALW$$b20$$c20210122$$lMAI60$$h1430
013021104 008   L 2101222u^^^^8^^^4001uueng0000000
013021104 LKR   L $$aHOL$$lMAI01$$b006201672
013021104 8520  L $$bBC-BC$$cWWW$$zClick on Find It button
013021104 876   L $$zClick on Find It button
013021105 OWN   L $$aBCHOL
013021105 FMT   L HO
013021105 LDR   L ^^^^^nx^^a22^^^^^1i^4500
013021105 CAT   L $$aD5BCALW$$b20$$c20210122$$lMAI60$$h1437
013021105 CAT   L $$aD5BCALW$$b20$$c20210122$$lMAI60$$h1437
013021105 CAT   L $$aD5BCALW$$b20$$c20210122$$lMAI60$$h1437
013021105 CAT   L $$aD5BCALW$$b20$$c20210122$$lMAI60$$h1437
013021105 CAT   L $$aD5BCALW$$b20$$c20210122$$lMAI60$$h1437
013021105 CAT   L $$aD5BCALW$$b20$$c20210122$$lMAI60$$h1437
013021105 CAT   L $$aD5BCALW$$b20$$c20210122$$lMAI60$$h1437
013021105 008   L 2101222u^^^^8^^^4001uueng0000000
013021105 LKR   L $$aHOL$$lMAI01$$b006201679
013021105 8520  L $$bBC-BC$$cWWW$$zClick on Find It button
013021105 876   L $$zClick on Find It button
013021106 OWN   L $$aESHOL
013021106 FMT   L HO
013021106 LDR   L ^^^^^nx^^a22^^^^^1i^4500
013021106 CAT   L $$aLOADBIB$$b20$$c20210122$$lMAI60$$h1439
013021106 CAT   L $$aLOADBIB$$b20$$c20210122$$lMAI60$$h1439
013021106 008   L 2101222u^^^^8^^^4001uueng0000000
013021106 LKR   L $$aHOL$$lMAI01$$b006203478
013021106 8520  L $$bES-ES$$cSPCOL$$hS494.5$$i.E8 F38 1988
013021107 OWN   L $$aBCHOL
013021107 FMT   L HO
013021107 LDR   L ^^^^^nx^^a22^^^^^1i^4500
013021107 CAT   L $$aD5BCALW$$b20$$c20210122$$lMAI60$$h1448
013021107 CAT   L $$aD5BCALW$$b20$$c20210122$$lMAI60$$h1448
013021107 CAT   L $$aD5BCALW$$b20$$c20210122$$lMAI60$$h1448
013021107 CAT   L $$aD5BCALW$$b20$$c20210122$$lMAI60$$h1448
013021107 CAT   L $$aD5BCALW$$b20$$c20210122$$lMAI60$$h1448
013021107 CAT   L $$aD5BCALW$$b20$$c20210122$$lMAI60$$h1448
013021107 CAT   L $$aD5BCALW$$b20$$c20210122$$lMAI60$$h1449
013021107 008   L 2101222u^^^^8^^^4001uueng0000000
013021107 LKR   L $$aHOL$$lMAI01$$b006201669
013021107 8520  L $$bBC-BC$$cWWW$$zClick on Find It button
013021107 876   L $$zClick on Find It button
013021108 OWN   L $$aBCHOL
013021108 FMT   L HO
013021108 LDR   L ^^^^^nx^^a22^^^^^1i^4500
013021108 CAT   L $$aD5BCALW$$b20$$c20210122$$lMAI60$$h1458
013021108 CAT   L $$aD5BCALW$$b20$$c20210122$$lMAI60$$h1458
013021108 CAT   L $$aD5BCALW$$b20$$c20210122$$lMAI60$$h1458
013021108 CAT   L $$aD5BCALW$$b20$$c20210122$$lMAI60$$h1458
013021108 CAT   L $$aD5BCALW$$b20$$c20210122$$lMAI60$$h1458
013021108 CAT   L $$aD5BCALW$$b20$$c20210122$$lMAI60$$h1458
013021108 008   L 2101222u^^^^8^^^4001uueng0000000
013021108 LKR   L $$aHOL$$lMAI01$$b006201668
013021108 8520  L $$bBC-BC$$cWWW$$zClick on Find It button
013021108 876   L $$zClick on Find It button
013021109 OWN   L $$aESHOL
013021109 FMT   L HO
013021109 LDR   L ^^^^^nx^^a22^^^^^1i^4500
013021109 CAT   L $$aLOADBIB$$b20$$c20210122$$lMAI60$$h1459
013021109 CAT   L $$aLOADBIB$$b20$$c20210122$$lMAI60$$h1459
013021109 008   L 2101222u^^^^8^^^4001uueng0000000
013021109 LKR   L $$aHOL$$lMAI01$$b006203479
013021109 8520  L $$bES-ES$$cSPCOL$$hLB1027.5$$i.A73 1989
013021110 OWN   L $$aBCHOL
013021110 FMT   L HO
013021110 LDR   L ^^^^^nx^^a22^^^^^1i^4500
013021110 CAT   L $$aD5BCALW$$b20$$c20210122$$lMAI60$$h1507
013021110 CAT   L $$aD5BCALW$$b20$$c20210122$$lMAI60$$h1507
013021110 CAT   L $$aD5BCALW$$b20$$c20210122$$lMAI60$$h1507
013021110 CAT   L $$aD5BCALW$$b20$$c20210122$$lMAI60$$h1507
013021110 CAT   L $$aD5BCALW$$b20$$c20210122$$lMAI60$$h1507
013021110 CAT   L $$aD5BCALW$$b20$$c20210122$$lMAI60$$h1507
013021110 008   L 2101222u^^^^8^^^4001uueng0000000
013021110 LKR   L $$aHOL$$lMAI01$$b006201678
013021110 8520  L $$bBC-BC$$cWWW$$zClick on Find It button
013021110 876   L $$zClick on Find It button
013021111 OWN   L $$aBCHOL
013021111 FMT   L HO
013021111 LDR   L ^^^^^nx^^a22^^^^^1i^4500
013021111 CAT   L $$aD5BCALW$$b20$$c20210122$$lMAI60$$h1512
013021111 CAT   L $$aD5BCALW$$b20$$c20210122$$lMAI60$$h1512
013021111 CAT   L $$aD5BCALW$$b20$$c20210122$$lMAI60$$h1512
013021111 CAT   L $$aD5BCALW$$b20$$c20210122$$lMAI60$$h1513
013021111 CAT   L $$aD5BCALW$$b20$$c20210122$$lMAI60$$h1513
013021111 CAT   L $$aD5BCALW$$b20$$c20210122$$lMAI60$$h1513
013021111 008   L 2101222u^^^^8^^^4001uueng0000000
013021111 LKR   L $$aHOL$$lMAI01$$b006201676
013021111 8520  L $$bBC-BC$$cWWW$$zClick on Find It button
013021111 876   L $$zClick on Find It button
013021112 OWN   L $$aSUHOL
013021112 FMT   L HO
013021112 LDR   L ^^^^^ny^^a22^^^^^1i^4500
013021112 CAT   L $$aXSUCN$$b20$$c20210122$$lMAI60$$h1514
013021112 CAT   L $$aXSUCN$$b20$$c20210122$$lMAI60$$h1514
013021112 CAT   L $$aXSUCN$$b20$$c20210122$$lMAI60$$h1514
013021112 CAT   L $$aXSUCN$$b20$$c20210122$$lMAI60$$h1525
013021112 CAT   L $$aXSUCN$$b20$$c20210122$$lMAI60$$h1710
013021112 008   L 2101224p^^^^8^^^4001uueng0000000
013021112 LKR   L $$aHOL$$lMAI01$$b004345535
013021112 8520  L $$bSU-SU$$cWWWJN
013021112 86630 L $$aONLINE: Click on Find It button
013021113 OWN   L $$aBCHOL
013021113 FMT   L HO
013021113 LDR   L ^^^^^nx^^a22^^^^^1i^4500
013021113 CAT   L $$aD5BCALW$$b20$$c20210122$$lMAI60$$h1523
013021113 CAT   L $$aD5BCALW$$b20$$c20210122$$lMAI60$$h1523
013021113 CAT   L $$aD5BCALW$$b20$$c20210122$$lMAI60$$h1523
013021113 CAT   L $$aD5BCALW$$b20$$c20210122$$lMAI60$$h1524
013021113 CAT   L $$aD5BCALW$$b20$$c20210122$$lMAI60$$h1524
013021113 008   L 2101222u^^^^8^^^4001uueng0000000
013021113 LKR   L $$aHOL$$lMAI01$$b006201674
013021113 8520  L $$bBC-BC$$cWWW$$zClick on Find It button
013021113 876   L $$zClick on Find It button
013021114 OWN   L $$aBCHOL
013021114 FMT   L HO
013021114 LDR   L ^^^^^nx^^a22^^^^^1i^4500
013021114 CAT   L $$aD5BCALW$$b20$$c20210122$$lMAI60$$h1529
013021114 CAT   L $$aD5BCALW$$b20$$c20210122$$lMAI60$$h1529
013021114 CAT   L $$aD5BCALW$$b20$$c20210122$$lMAI60$$h1529
013021114 CAT   L $$aD5BCALW$$b20$$c20210122$$lMAI60$$h1529
013021114 CAT   L $$aD5BCALW$$b20$$c20210122$$lMAI60$$h1529
013021114 CAT   L $$aD5BCALW$$b20$$c20210122$$lMAI60$$h1529
013021114 008   L 2101222u^^^^8^^^4001uueng0000000
013021114 LKR   L $$aHOL$$lMAI01$$b006201671
013021114 8520  L $$bBC-BC$$cWWW$$zClick on Find It button
013021114 876   L $$zClick on Find It button
013021115 OWN   L $$aBCHOL
013021115 FMT   L HO
013021115 LDR   L ^^^^^nx^^a22^^^^^1i^4500
013021115 CAT   L $$aD5BCALW$$b20$$c20210122$$lMAI60$$h1554
013021115 CAT   L $$aD5BCALW$$b20$$c20210122$$lMAI60$$h1554
013021115 CAT   L $$aD5BCALW$$b20$$c20210122$$lMAI60$$h1554
013021115 CAT   L $$aD5BCALW$$b20$$c20210122$$lMAI60$$h1554
013021115 CAT   L $$aD5BCALW$$b20$$c20210122$$lMAI60$$h1554
013021115 008   L 2101222u^^^^8^^^4001uueng0000000
013021115 LKR   L $$aHOL$$lMAI01$$b006201298
013021115 8520  L $$bBC-BC$$cWWW$$zClick on Find It button
013021115 876   L $$zClick on Find It button
013021116 OWN   L $$aBCHOL
013021116 FMT   L HO
013021116 LDR   L ^^^^^nx^^a22^^^^^1i^4500
013021116 CAT   L $$aD5BCALW$$b20$$c20210122$$lMAI60$$h1600
013021116 CAT   L $$aD5BCALW$$b20$$c20210122$$lMAI60$$h1600
013021116 CAT   L $$aD5BCALW$$b20$$c20210122$$lMAI60$$h1600
013021116 CAT   L $$aD5BCALW$$b20$$c20210122$$lMAI60$$h1601
013021116 CAT   L $$aD5BCALW$$b20$$c20210122$$lMAI60$$h1601
013021116 008   L 2101222u^^^^8^^^4001uueng0000000
013021116 LKR   L $$aHOL$$lMAI01$$b006201300
013021116 8520  L $$bBC-BC$$cWWW$$zClick on Find It button
013021116 876   L $$zClick on Find It button
013021117 OWN   L $$aBCHOL
013021117 FMT   L HO
013021117 LDR   L ^^^^^nx^^a22^^^^^1i^4500
013021117 CAT   L $$aD5BCALW$$b20$$c20210122$$lMAI60$$h1605
013021117 CAT   L $$aD5BCALW$$b20$$c20210122$$lMAI60$$h1605
013021117 CAT   L $$aD5BCALW$$b20$$c20210122$$lMAI60$$h1605
013021117 CAT   L $$aD5BCALW$$b20$$c20210122$$lMAI60$$h1606
013021117 CAT   L $$aD5BCALW$$b20$$c20210122$$lMAI60$$h1606
013021117 008   L 2101222u^^^^8^^^4001uueng0000000
013021117 LKR   L $$aHOL$$lMAI01$$b006201303
013021117 8520  L $$bBC-BC$$cWWW$$zClick on Find It button
013021117 876   L $$zClick on Find It button
013021118 OWN   L $$aBCHOL
013021118 FMT   L HO
013021118 LDR   L ^^^^^nx^^a22^^^^^1i^4500
013021118 CAT   L $$aD5BCALW$$b20$$c20210122$$lMAI60$$h1611
013021118 CAT   L $$aD5BCALW$$b20$$c20210122$$lMAI60$$h1611
013021118 CAT   L $$aD5BCALW$$b20$$c20210122$$lMAI60$$h1611
013021118 CAT   L $$aD5BCALW$$b20$$c20210122$$lMAI60$$h1612
013021118 CAT   L $$aD5BCALW$$b20$$c20210122$$lMAI60$$h1612
013021118 008   L 2101222u^^^^8^^^4001uueng0000000
013021118 LKR   L $$aHOL$$lMAI01$$b006201305
013021118 8520  L $$bBC-BC$$cWWW$$zClick on Find It button
013021118 876   L $$zClick on Find It button
013021119 OWN   L $$aBCHOL
013021119 FMT   L HO
013021119 LDR   L ^^^^^nx^^a22^^^^^1i^4500
013021119 CAT   L $$aD5BCALW$$b20$$c20210122$$lMAI60$$h1620
013021119 CAT   L $$aD5BCALW$$b20$$c20210122$$lMAI60$$h1620
013021119 CAT   L $$aD5BCALW$$b20$$c20210122$$lMAI60$$h1620
013021119 CAT   L $$aD5BCALW$$b20$$c20210122$$lMAI60$$h1620
013021119 008   L 2101222u^^^^8^^^4001uueng0000000
013021119 LKR   L $$aHOL$$lMAI01$$b006201309
013021119 8520  L $$bBC-BC$$cWWW$$zClick on Find It button
013021119 876   L $$zClick on Find It button
013021120 OWN   L $$aBCHOL
013021120 FMT   L HO
013021120 LDR   L ^^^^^nx^^a22^^^^^1i^4500
013021120 CAT   L $$aD5BCALW$$b20$$c20210122$$lMAI60$$h1625
013021120 CAT   L $$aD5BCALW$$b20$$c20210122$$lMAI60$$h1625
013021120 CAT   L $$aD5BCALW$$b20$$c20210122$$lMAI60$$h1625
013021120 CAT   L $$aD5BCALW$$b20$$c20210122$$lMAI60$$h1625
013021120 CAT   L $$aD5BCALW$$b20$$c20210122$$lMAI60$$h1625
013021120 008   L 2101222u^^^^8^^^4001uueng0000000
013021120 LKR   L $$aHOL$$lMAI01$$b006201308
013021120 8520  L $$bBC-BC$$cWWW$$zClick on Find It button
013021120 876   L $$zClick on Find It button
013021121 OWN   L $$aCPHOL
013021121 FMT   L HO
013021121 LDR   L ^^^^^nx^^a22^^^^^1i^4500
013021121 CAT   L $$aLOADBIB$$b20$$c20210122$$lMAI60$$h2045
013021121 CAT   L $$aLOADBIB$$b20$$c20210122$$lMAI60$$h2045
013021121 CAT   L $$aLOADBIB$$b20$$c20210122$$lMAI60$$h2045
013021121 008   L 2101222u^^^^8^^^4001uueng0000000
013021121 LKR   L $$aHOL$$lMAI01$$b006203401
013021121 8520  L $$bCPNET$$cEBWWW$$hHC800.M337 2019
013021122 OWN   L $$aCPHOL
013021122 FMT   L HO
013021122 LDR   L ^^^^^nx^^a22^^^^^1i^4500
013021122 CAT   L $$aLOADBIB$$b20$$c20210122$$lMAI60$$h2045
013021122 CAT   L $$aLOADBIB$$b20$$c20210122$$lMAI60$$h2045
013021122 CAT   L $$aLOADBIB$$b20$$c20210122$$lMAI60$$h2045
013021122 008   L 2101222u^^^^8^^^4001uueng0000000
013021122 LKR   L $$aHOL$$lMAI01$$b006203399
013021122 8520  L $$bCPNET$$cEBWWW$$hHD62.7
013021123 OWN   L $$aCPHOL
013021123 FMT   L HO
013021123 LDR   L ^^^^^nx^^a22^^^^^1i^4500
013021123 CAT   L $$aLOADBIB$$b20$$c20210122$$lMAI60$$h2045
013021123 CAT   L $$aLOADBIB$$b20$$c20210122$$lMAI60$$h2045
013021123 008   L 2101222u^^^^8^^^4001uueng0000000
013021123 LKR   L $$aHOL$$lMAI01$$b006201675
013021123 8520  L $$bCPNET$$cEBWWW$$hHC800.Z9$$iT448 2020
013021124 OWN   L $$aCPHOL
013021124 FMT   L HO
013021124 LDR   L ^^^^^nx^^a22^^^^^1i^4500
013021124 CAT   L $$aLOADBIB$$b20$$c20210122$$lMAI60$$h2045
013021124 CAT   L $$aLOADBIB$$b20$$c20210122$$lMAI60$$h2045
013021124 CAT   L $$aLOADBIB$$b20$$c20210122$$lMAI60$$h2045
013021124 008   L 2101222u^^^^8^^^4001uueng0000000
013021124 LKR   L $$aHOL$$lMAI01$$b006203398
013021124 8520  L $$bCPNET$$cEBWWW$$hHD30.3
013021125 OWN   L $$aCPHOL
013021125 FMT   L HO
013021125 LDR   L ^^^^^nx^^a22^^^^^1i^4500
013021125 CAT   L $$aLOADBIB$$b20$$c20210122$$lMAI60$$h2045
013021125 CAT   L $$aLOADBIB$$b20$$c20210122$$lMAI60$$h2045
013021125 CAT   L $$aLOADBIB$$b20$$c20210122$$lMAI60$$h2045
013021125 008   L 2101222u^^^^8^^^4001uueng0000000
013021125 LKR   L $$aHOL$$lMAI01$$b006203397
013021125 8520  L $$bCPNET$$cEBWWW$$hHD53$$i.B59 2020
013021126 OWN   L $$aCPHOL
013021126 FMT   L HO
013021126 LDR   L ^^^^^nx^^a22^^^^^1i^4500
013021126 CAT   L $$aLOADBIB$$b20$$c20210122$$lMAI60$$h2045
013021126 CAT   L $$aLOADBIB$$b20$$c20210122$$lMAI60$$h2045
013021126 CAT   L $$aLOADBIB$$b20$$c20210122$$lMAI60$$h2045
013021126 008   L 2101222u^^^^8^^^4001uueng0000000
013021126 LKR   L $$aHOL$$lMAI01$$b006203396
013021126 8520  L $$bCPNET$$cEBWWW$$hHD2385.E85$$iO98 2021
013021127 OWN   L $$aCPHOL
013021127 FMT   L HO
013021127 LDR   L ^^^^^nx^^a22^^^^^1i^4500
013021127 CAT   L $$aLOADBIB$$b20$$c20210122$$lMAI60$$h2045
013021127 CAT   L $$aLOADBIB$$b20$$c20210122$$lMAI60$$h2045
013021127 CAT   L $$aLOADBIB$$b20$$c20210122$$lMAI60$$h2045
013021127 008   L 2101222u^^^^8^^^4001uueng0000000
013021127 LKR   L $$aHOL$$lMAI01$$b006203389
013021127 8520  L $$bCPNET$$cEBWWW$$hHC79.P6$$iC59 2020
013021128 OWN   L $$aCPHOL
013021128 FMT   L HO
013021128 LDR   L ^^^^^nx^^a22^^^^^1i^4500
013021128 CAT   L $$aLOADBIB$$b20$$c20210122$$lMAI60$$h2045
013021128 CAT   L $$aLOADBIB$$b20$$c20210122$$lMAI60$$h2045
013021128 CAT   L $$aLOADBIB$$b20$$c20210122$$lMAI60$$h2045
013021128 008   L 2101222u^^^^8^^^4001uueng0000000
013021128 LKR   L $$aHOL$$lMAI01$$b006203388
013021128 8520  L $$bCPNET$$cEBWWW$$hHC125$$i.R4164 2021
013021129 OWN   L $$aCPHOL
013021129 FMT   L HO
013021129 LDR   L ^^^^^nx^^a22^^^^^1i^4500
013021129 CAT   L $$aLOADBIB$$b20$$c20210122$$lMAI60$$h2045
013021129 CAT   L $$aLOADBIB$$b20$$c20210122$$lMAI60$$h2045
013021129 CAT   L $$aLOADBIB$$b20$$c20210122$$lMAI60$$h2045
013021129 008   L 2101222u^^^^8^^^4001uueng0000000
013021129 LKR   L $$aHOL$$lMAI01$$b006203395
013021129 8520  L $$bCPNET$$cEBWWW$$hHC135$$i.T535 2021
013021130 OWN   L $$aCPHOL
013021130 FMT   L HO
013021130 LDR   L ^^^^^nx^^a22^^^^^1i^4500
013021130 CAT   L $$aLOADBIB$$b20$$c20210122$$lMAI60$$h2045
013021130 CAT   L $$aLOADBIB$$b20$$c20210122$$lMAI60$$h2045
013021130 CAT   L $$aLOADBIB$$b20$$c20210122$$lMAI60$$h2045
013021130 008   L 2101222u^^^^8^^^4001uueng0000000
013021130 LKR   L $$aHOL$$lMAI01$$b006203393
013021130 8520  L $$bCPNET$$cEBWWW$$hHD6331$$i.S65 2020
013021131 OWN   L $$aCPHOL
013021131 FMT   L HO
013021131 LDR   L ^^^^^nx^^a22^^^^^1i^4500
013021131 CAT   L $$aLOADBIB$$b20$$c20210122$$lMAI60$$h2045
013021131 CAT   L $$aLOADBIB$$b20$$c20210122$$lMAI60$$h2045
013021131 CAT   L $$aLOADBIB$$b20$$c20210122$$lMAI60$$h2045
013021131 008   L 2101222u^^^^8^^^4001uueng0000000
013021131 LKR   L $$aHOL$$lMAI01$$b006203387
013021131 8520  L $$bCPNET$$cEBWWW$$hHC106.5
013021132 OWN   L $$aCPHOL
013021132 FMT   L HO
013021132 LDR   L ^^^^^nx^^a22^^^^^1i^4500
013021132 CAT   L $$aLOADBIB$$b20$$c20210122$$lMAI60$$h2045
013021132 CAT   L $$aLOADBIB$$b20$$c20210122$$lMAI60$$h2045
013021132 CAT   L $$aLOADBIB$$b20$$c20210122$$lMAI60$$h2045
013021132 008   L 2101222u^^^^8^^^4001uueng0000000
013021132 LKR   L $$aHOL$$lMAI01$$b006203386
013021132 8520  L $$bCPNET$$cEBWWW$$hE444$$i.B38 2019
013021133 OWN   L $$aCPHOL
013021133 FMT   L HO
013021133 LDR   L ^^^^^nx^^a22^^^^^1i^4500
013021133 CAT   L $$aLOADBIB$$b20$$c20210122$$lMAI60$$h2045
013021133 CAT   L $$aLOADBIB$$b20$$c20210122$$lMAI60$$h2045
013021133 CAT   L $$aLOADBIB$$b20$$c20210122$$lMAI60$$h2045
013021133 008   L 2101222u^^^^8^^^4001uueng0000000
013021133 LKR   L $$aHOL$$lMAI01$$b006203392
013021133 8520  L $$bCPNET$$cEBWWW$$hHD75$$i.P48 2020
013021134 OWN   L $$aCPHOL
013021134 FMT   L HO
013021134 LDR   L ^^^^^nx^^a22^^^^^1i^4500
013021134 CAT   L $$aLOADBIB$$b20$$c20210122$$lMAI60$$h2045
013021134 CAT   L $$aLOADBIB$$b20$$c20210122$$lMAI60$$h2045
013021134 CAT   L $$aLOADBIB$$b20$$c20210122$$lMAI60$$h2045
013021134 008   L 2101222u^^^^8^^^4001uueng0000000
013021134 LKR   L $$aHOL$$lMAI01$$b006203410
013021134 8520  L $$bCPNET$$cEBWWW$$hHQ1190$$i.M383 2007
013021135 OWN   L $$aCPHOL
013021135 FMT   L HO
013021135 LDR   L ^^^^^nx^^a22^^^^^1i^4500
013021135 CAT   L $$aLOADBIB$$b20$$c20210122$$lMAI60$$h2045
013021135 CAT   L $$aLOADBIB$$b20$$c20210122$$lMAI60$$h2045
013021135 008   L 2101222u^^^^8^^^4001uueng0000000
013021135 LKR   L $$aHOL$$lMAI01$$b004179860
013021135 8520  L $$bCPNET$$cEBWWW$$hHV6024.5$$i.B46 2013
013021136 OWN   L $$aCPHOL
013021136 FMT   L HO
013021136 LDR   L ^^^^^nx^^a22^^^^^1i^4500
013021136 CAT   L $$aLOADBIB$$b20$$c20210122$$lMAI60$$h2045
013021136 CAT   L $$aLOADBIB$$b20$$c20210122$$lMAI60$$h2045
013021136 CAT   L $$aLOADBIB$$b20$$c20210122$$lMAI60$$h2045
013021136 008   L 2101222u^^^^8^^^4001uueng0000000
013021136 LKR   L $$aHOL$$lMAI01$$b006203402
013021136 8520  L $$bCPNET$$cEBWWW$$hHD49.3$$i.A38 2021
013021137 OWN   L $$aCPHOL
013021137 FMT   L HO
013021137 LDR   L ^^^^^nx^^a22^^^^^1i^4500
013021137 CAT   L $$aLOADBIB$$b20$$c20210122$$lMAI60$$h2045
013021137 CAT   L $$aLOADBIB$$b20$$c20210122$$lMAI60$$h2045
013021137 CAT   L $$aLOADBIB$$b20$$c20210122$$lMAI60$$h2045
013021137 008   L 2101222u^^^^8^^^4001uueng0000000
013021137 LKR   L $$aHOL$$lMAI01$$b006203400
013021137 8520  L $$bCPNET$$cEBWWW$$hBT736.2$$i.B87 2020
013021138 OWN   L $$aCPHOL
013021138 FMT   L HO
013021138 LDR   L ^^^^^nx^^a22^^^^^1i^4500
013021138 CAT   L $$aLOADBIB$$b20$$c20210122$$lMAI60$$h2045
013021138 CAT   L $$aLOADBIB$$b20$$c20210122$$lMAI60$$h2045
013021138 CAT   L $$aLOADBIB$$b20$$c20210122$$lMAI60$$h2045
013021138 008   L 2101222u^^^^8^^^4001uueng0000000
013021138 LKR   L $$aHOL$$lMAI01$$b006203390
013021138 8520  L $$bCPNET$$cEBWWW$$hHB139
013021139 OWN   L $$aCPHOL
013021139 FMT   L HO
013021139 LDR   L ^^^^^nx^^a22^^^^^1i^4500
013021139 CAT   L $$aLOADBIB$$b20$$c20210122$$lMAI60$$h2045
013021139 CAT   L $$aLOADBIB$$b20$$c20210122$$lMAI60$$h2045
013021139 CAT   L $$aLOADBIB$$b20$$c20210122$$lMAI60$$h2045
013021139 008   L 2101222u^^^^8^^^4001uueng0000000
013021139 LKR   L $$aHOL$$lMAI01$$b006203407
013021139 8520  L $$bCPNET$$cEBWWW$$hRA454.G8+
013021140 OWN   L $$aCPHOL
013021140 FMT   L HO
013021140 LDR   L ^^^^^nx^^a22^^^^^1i^4500
013021140 CAT   L $$aLOADBIB$$b20$$c20210122$$lMAI60$$h2045
013021140 CAT   L $$aLOADBIB$$b20$$c20210122$$lMAI60$$h2045
013021140 CAT   L $$aLOADBIB$$b20$$c20210122$$lMAI60$$h2045
013021140 008   L 2101222u^^^^8^^^4001uueng0000000
013021140 LKR   L $$aHOL$$lMAI01$$b006203404
013021140 8520  L $$bCPNET$$cEBWWW$$hHN90.M3$$iW47 2018eb
013021141 OWN   L $$aCPHOL
013021141 FMT   L HO
013021141 LDR   L ^^^^^nx^^a22^^^^^1i^4500
013021141 CAT   L $$aLOADBIB$$b20$$c20210122$$lMAI60$$h2045
013021141 CAT   L $$aLOADBIB$$b20$$c20210122$$lMAI60$$h2045
013021141 CAT   L $$aLOADBIB$$b20$$c20210122$$lMAI60$$h2045
013021141 008   L 2101222u^^^^8^^^4001uueng0000000
013021141 LKR   L $$aHOL$$lMAI01$$b006203394
013021141 8520  L $$bCPNET$$cEBWWW$$hHC427.95$$i.R57 2021
013021142 OWN   L $$aCPHOL
013021142 FMT   L HO
013021142 LDR   L ^^^^^nx^^a22^^^^^1i^4500
013021142 CAT   L $$aLOADBIB$$b20$$c20210122$$lMAI60$$h2045
013021142 CAT   L $$aLOADBIB$$b20$$c20210122$$lMAI60$$h2045
013021142 CAT   L $$aLOADBIB$$b20$$c20210122$$lMAI60$$h2045
013021142 008   L 2101222u^^^^8^^^4001uueng0000000
013021142 LKR   L $$aHOL$$lMAI01$$b006203408
013021142 8520  L $$bCPNET$$cEBWWW$$hHM477.U6$$iI89 2020eb
013021143 OWN   L $$aCPHOL
013021143 FMT   L HO
013021143 LDR   L ^^^^^nx^^a22^^^^^1i^4500
013021143 CAT   L $$aLOADBIB$$b20$$c20210122$$lMAI60$$h2045
013021143 CAT   L $$aLOADBIB$$b20$$c20210122$$lMAI60$$h2045
013021143 CAT   L $$aLOADBIB$$b20$$c20210122$$lMAI60$$h2045
013021143 008   L 2101222u^^^^8^^^4001uueng0000000
013021143 LKR   L $$aHOL$$lMAI01$$b006203403
013021143 8520  L $$bCPNET$$cEBWWW$$hNA9070$$i.J46 2008eb
013021144 OWN   L $$aCPHOL
013021144 FMT   L HO
013021144 LDR   L ^^^^^nx^^a22^^^^^1i^4500
013021144 CAT   L $$aLOADBIB$$b20$$c20210122$$lMAI60$$h2045
013021144 CAT   L $$aLOADBIB$$b20$$c20210122$$lMAI60$$h2045
013021144 CAT   L $$aLOADBIB$$b20$$c20210122$$lMAI60$$h2045
013021144 008   L 2101222u^^^^8^^^4001uueng0000000
013021144 LKR   L $$aHOL$$lMAI01$$b006203391
013021144 8520  L $$bCPNET$$cEBWWW$$hT14.5$$i.B37 2020
